	.text
	.file	"urcl"
	.globl	urcl_main                       # -- Begin function urcl_main
	.p2align	4, 0x90
	.type	urcl_main,@function
urcl_main:                              # @urcl_main
	.cfi_startproc
# %bb.0:                                # %entry
	pushq	%rbp
	.cfi_def_cfa_offset 16
	pushq	%r15
	.cfi_def_cfa_offset 24
	pushq	%r14
	.cfi_def_cfa_offset 32
	pushq	%r13
	.cfi_def_cfa_offset 40
	pushq	%r12
	.cfi_def_cfa_offset 48
	pushq	%rbx
	.cfi_def_cfa_offset 56
	subq	$8568, %rsp                     # imm = 0x2178
	.cfi_def_cfa_offset 8624
	.cfi_offset %rbx, -56
	.cfi_offset %r12, -48
	.cfi_offset %r13, -40
	.cfi_offset %r14, -32
	.cfi_offset %r15, -24
	.cfi_offset %rbp, -16
	leaq	68(%rsp), %rdi
	xorl	%eax, %eax
	movq	%rax, 48(%rsp)                  # 8-byte Spill
	movl	$8500, %edx                     # imm = 0x2134
	xorl	%esi, %esi
	callq	memset@PLT
	movabsq	$11822095052570651, %rax        # imm = 0x2A0022001C001B
	movq	%rax, 68(%rsp)
	movabsq	$20829431748231218, %rax        # imm = 0x4A0042003A0032
	movq	%rax, 76(%rsp)
	movabsq	$31244177687576658, %rax        # imm = 0x6F006A005E0052
	movq	%rax, 84(%rsp)
	movabsq	$46725520453337204, %rax        # imm = 0xA6009D00910074
	movq	%rax, 92(%rsp)
	movabsq	$103865657988677807, %rax       # imm = 0x171014400C700AF
	movq	%rax, 100(%rsp)
	movabsq	$332143122543280511, %rax       # imm = 0x49C026901C8017F
	movq	%rax, 108(%rsp)
	movabsq	$188309607060079772, %rax       # imm = 0x29D0297049C049C
	movq	%rax, 116(%rsp)
	movabsq	$213363100457108200, %rax       # imm = 0x2F6049C02EC02E8
	movq	%rax, 124(%rsp)
	movabsq	$249671577184765084, %rax       # imm = 0x37702FA049C049C
	movq	%rax, 132(%rsp)
	movabsq	$285982922907255728, %rax       # imm = 0x3F803F403B703B0
	movq	%rax, 140(%rsp)
	movabsq	$332145051020887036, %rax       # imm = 0x49C042A040103FC
	movq	%rax, 148(%rsp)
	movabsq	$332145540657317020, %rax       # imm = 0x49C049C049C049C
	movq	%rax, 156(%rsp)
	movabsq	$306812380429878318, %rax       # imm = 0x442043C0437042E
	movq	%rax, 164(%rsp)
	movl	$75367526, 172(%rsp)            # imm = 0x47E0466
	movq	$0, 176(%rsp)
	movabsq	$38843615773982721, %rax        # imm = 0x8A001010000001
	movq	%rax, 184(%rsp)
	movl	$-65398, 192(%rsp)              # imm = 0xFFFF008A
	movl	$0, 204(%rsp)
	movq	$0, 196(%rsp)
	movabsq	$30399714103394314, %rax        # imm = 0x6C00610068000A
	movq	%rax, 208(%rsp)
	movabsq	$28992395054481524, %rax        # imm = 0x67006E00690074
	movq	%rax, 216(%rsp)
	movabsq	$2814947338616878, %rax         # imm = 0xA002E002E002E
	movq	%rax, 224(%rsp)
	movl	$7995392, 232(%rsp)             # imm = 0x7A0000
	movw	$1, 236(%rsp)
	movq	$0, 300(%rsp)
	movq	$0, 294(%rsp)
	movq	$0, 286(%rsp)
	movq	$0, 278(%rsp)
	movq	$0, 270(%rsp)
	movq	$0, 262(%rsp)
	movq	$0, 254(%rsp)
	movq	$0, 246(%rsp)
	movq	$0, 238(%rsp)
	movw	$-1, 308(%rsp)
	movq	$0, 310(%rsp)
	movq	$0, 318(%rsp)
	movq	$0, 326(%rsp)
	movq	$0, 334(%rsp)
	movw	$0, 342(%rsp)
	movw	$4250, %ax                      # imm = 0x109A
	movq	%rax, 24(%rsp)                  # 8-byte Spill
	xorl	%ebx, %ebx
	xorl	%ebp, %ebp
	xorl	%eax, %eax
	movq	%rax, 56(%rsp)                  # 8-byte Spill
	xorl	%r15d, %r15d
	xorl	%r12d, %r12d
	xorl	%r13d, %r13d
	xorl	%r14d, %r14d
.LBB0_1:                                # %inst_0
                                        # =>This Loop Header: Depth=1
                                        #     Child Loop BB0_2 Depth 2
                                        #       Child Loop BB0_3 Depth 3
                                        #         Child Loop BB0_50 Depth 4
                                        #           Child Loop BB0_51 Depth 5
                                        #             Child Loop BB0_52 Depth 6
	incq	%r14
	movl	$32, %edi
	movl	$7, %esi
	callq	urcl_out@PLT
.LBB0_2:                                # %inst_1
                                        #   Parent Loop BB0_1 Depth=1
                                        # =>  This Loop Header: Depth=2
                                        #       Child Loop BB0_3 Depth 3
                                        #         Child Loop BB0_50 Depth 4
                                        #           Child Loop BB0_51 Depth 5
                                        #             Child Loop BB0_52 Depth 6
	incq	%r14
	movl	$33, %edi
	callq	urcl_in@PLT
	movl	%eax, %r9d
	movq	%rbx, %r11
	movl	%r13d, %r8d
	movq	24(%rsp), %rdi                  # 8-byte Reload
.LBB0_3:                                # %inst_2
                                        #   Parent Loop BB0_1 Depth=1
                                        #     Parent Loop BB0_2 Depth=2
                                        # =>    This Loop Header: Depth=3
                                        #         Child Loop BB0_50 Depth 4
                                        #           Child Loop BB0_51 Depth 5
                                        #             Child Loop BB0_52 Depth 6
	incq	%r14
	testw	%r9w, %r9w
	je	.LBB0_5
.LBB0_4:                                # %inst_3
                                        #   in Loop: Header=BB0_3 Depth=3
	incq	%r14
	movw	%r9w, 204(%rsp)
	movq	48(%rsp), %rbp                  # 8-byte Reload
	jmp	.LBB0_10
	.p2align	4, 0x90
.LBB0_5:                                #   in Loop: Header=BB0_3 Depth=3
	xorl	%esi, %esi
.LBB0_6:                                # %inst_20
                                        #   in Loop: Header=BB0_3 Depth=3
	movl	%esi, 16(%rsp)                  # 4-byte Spill
	movq	%rdi, %rbx
	movl	%ebp, 44(%rsp)                  # 4-byte Spill
	movq	%r11, 32(%rsp)                  # 8-byte Spill
	movl	%r8d, %r13d
	incq	%r14
	movl	$1, %edi
	movl	$69, %esi
	callq	urcl_out@PLT
	movq	48(%rsp), %rbp                  # 8-byte Reload
	jmp	.LBB0_46
.LBB0_7:                                # %inst_2.loopexit
                                        #   in Loop: Header=BB0_3 Depth=3
	movl	%ebx, %eax
	movq	%rax, 48(%rsp)                  # 8-byte Spill
	movl	32(%rsp), %eax                  # 4-byte Reload
	movl	%eax, %r11d
	movl	%r13d, %ebp
	movl	16(%rsp), %eax                  # 4-byte Reload
	movl	%eax, %r9d
	movl	%r10d, %r15d
	movl	24(%rsp), %r12d                 # 4-byte Reload
                                        # kill: def $r12w killed $r12w killed $r12d def $r12d
	movl	20(%rsp), %eax                  # 4-byte Reload
	movl	%eax, %r8d
	movzwl	8(%rsp), %eax                   # 2-byte Folded Reload
	movl	%eax, %edi
	movq	%rcx, %r14
	jmp	.LBB0_3
.LBB0_8:                                # %inst_3.loopexit
                                        #   in Loop: Header=BB0_3 Depth=3
	movl	%ebx, %eax
	movq	%rax, 48(%rsp)                  # 8-byte Spill
	movl	32(%rsp), %eax                  # 4-byte Reload
	movl	%eax, %r11d
	movl	16(%rsp), %eax                  # 4-byte Reload
	movl	%eax, %r9d
	movl	%r10d, %r15d
	movl	24(%rsp), %r12d                 # 4-byte Reload
                                        # kill: def $r12w killed $r12w killed $r12d def $r12d
	movl	20(%rsp), %eax                  # 4-byte Reload
	movl	%eax, %r8d
	movzwl	8(%rsp), %eax                   # 2-byte Folded Reload
	movl	%eax, %edi
	movq	%rcx, %r14
	jmp	.LBB0_4
.LBB0_9:                                # %inst_4.loopexit
                                        #   in Loop: Header=BB0_3 Depth=3
	movl	%ebx, %ebp
	movl	32(%rsp), %eax                  # 4-byte Reload
	movl	%eax, %r11d
	movl	16(%rsp), %eax                  # 4-byte Reload
	movl	%eax, %r9d
	movl	%r10d, %r15d
	movl	24(%rsp), %r12d                 # 4-byte Reload
                                        # kill: def $r12w killed $r12w killed $r12d def $r12d
	movl	20(%rsp), %eax                  # 4-byte Reload
	movl	%eax, %r8d
	movzwl	8(%rsp), %eax                   # 2-byte Folded Reload
	movl	%eax, %edi
	movq	%rcx, %r14
	.p2align	4, 0x90
.LBB0_10:                               # %inst_4
                                        #   in Loop: Header=BB0_3 Depth=3
	incq	%r14
	movw	$138, 192(%rsp)
.LBB0_11:                               # %inst_5
                                        #   in Loop: Header=BB0_3 Depth=3
	incq	%r14
	movw	$4094, %cx                      # imm = 0xFFE
.LBB0_12:                               # %inst_6
                                        #   in Loop: Header=BB0_3 Depth=3
	incq	%r14
	movzwl	%cx, %eax
	cmpl	$32766, %eax                    # imm = 0x7FFE
	jbe	.LBB0_22
.LBB0_13:                               # %inst_11
                                        #   in Loop: Header=BB0_3 Depth=3
	incq	%r14
	movw	$32766, %ax                     # imm = 0x7FFE
.LBB0_14:                               # %inst_12
                                        #   in Loop: Header=BB0_3 Depth=3
	incq	%r14
	movw	%ax, 344(%rsp)
.LBB0_15:                               # %inst_13
                                        #   in Loop: Header=BB0_3 Depth=3
	incq	%r14
	movw	$-28672, %cx                    # imm = 0x9000
.LBB0_16:                               # %inst_14
                                        #   in Loop: Header=BB0_3 Depth=3
	incq	%r14
	decl	%ecx
.LBB0_17:                               # %inst_15
                                        #   in Loop: Header=BB0_3 Depth=3
	incq	%r14
	movw	$32767, %r15w                   # imm = 0x7FFF
.LBB0_18:                               # %inst_16
                                        #   in Loop: Header=BB0_3 Depth=3
	incq	%r14
	leal	138(%r15), %eax
	movzwl	%ax, %eax
	movw	%cx, 68(%rsp,%rax,2)
	jmp	.LBB0_23
.LBB0_19:                               # %inst_5.loopexit
                                        #   in Loop: Header=BB0_3 Depth=3
	movl	%ebx, %ebp
	movl	32(%rsp), %eax                  # 4-byte Reload
	movl	%eax, %r11d
	movl	16(%rsp), %eax                  # 4-byte Reload
	movl	%eax, %r9d
	movl	%r10d, %r15d
	movl	24(%rsp), %r12d                 # 4-byte Reload
                                        # kill: def $r12w killed $r12w killed $r12d def $r12d
	movl	20(%rsp), %eax                  # 4-byte Reload
	movl	%eax, %r8d
	movzwl	8(%rsp), %eax                   # 2-byte Folded Reload
	movl	%eax, %edi
	movq	%rcx, %r14
	jmp	.LBB0_11
.LBB0_20:                               # %inst_6.loopexit
                                        #   in Loop: Header=BB0_3 Depth=3
	movl	%ebx, %ebp
	movl	32(%rsp), %eax                  # 4-byte Reload
	movl	%eax, %r11d
	movl	16(%rsp), %eax                  # 4-byte Reload
	movl	%eax, %r9d
	movl	%r10d, %r15d
	movl	24(%rsp), %r12d                 # 4-byte Reload
                                        # kill: def $r12w killed $r12w killed $r12d def $r12d
	movl	20(%rsp), %eax                  # 4-byte Reload
	movl	%eax, %r8d
	movzwl	8(%rsp), %eax                   # 2-byte Folded Reload
	movl	%eax, %edi
	movq	%rcx, %r14
	movq	56(%rsp), %rcx                  # 8-byte Reload
	jmp	.LBB0_12
.LBB0_21:                               # %inst_7.loopexit
                                        #   in Loop: Header=BB0_3 Depth=3
	movl	%ebx, %ebp
	movl	32(%rsp), %eax                  # 4-byte Reload
	movl	%eax, %r11d
	movl	16(%rsp), %eax                  # 4-byte Reload
	movl	%eax, %r9d
	movl	%r10d, %r15d
	movl	24(%rsp), %r12d                 # 4-byte Reload
                                        # kill: def $r12w killed $r12w killed $r12d def $r12d
	movl	20(%rsp), %eax                  # 4-byte Reload
	movl	%eax, %r8d
	movzwl	8(%rsp), %eax                   # 2-byte Folded Reload
	movl	%eax, %edi
	movq	%rcx, %r14
	movq	56(%rsp), %rcx                  # 8-byte Reload
	.p2align	4, 0x90
.LBB0_22:                               # %inst_7
                                        #   in Loop: Header=BB0_3 Depth=3
	incq	%r14
	movw	%cx, 344(%rsp)
.LBB0_23:                               # %inst_8
                                        #   in Loop: Header=BB0_3 Depth=3
	incq	%r14
	movw	$4095, %ax                      # imm = 0xFFF
.LBB0_24:                               # %inst_9
                                        #   in Loop: Header=BB0_3 Depth=3
	incq	%r14
	movq	%rax, 56(%rsp)                  # 8-byte Spill
	addl	$138, %eax
	movzwl	%ax, %eax
	movw	$-1, 68(%rsp,%rax,2)
	incq	%r14
.LBB0_25:                               # %inst_1307
                                        #   in Loop: Header=BB0_3 Depth=3
	incq	%r14
	movw	$16, %dx
.LBB0_26:                               # %inst_1308
                                        #   in Loop: Header=BB0_3 Depth=3
	incq	%r14
	movw	$22, 274(%rsp)
	movw	$1310, %si                      # imm = 0x51E
	movl	%edi, %eax
.LBB0_27:                               # %inst_887.sink.split
                                        #   in Loop: Header=BB0_3 Depth=3
	incq	%r14
	decl	%eax
	movzwl	%ax, %ecx
	movw	%si, 68(%rsp,%rcx,2)
.LBB0_28:                               # %inst_887
                                        #   in Loop: Header=BB0_3 Depth=3
	incq	%r14
	addl	$87, %edx
.LBB0_29:                               # %inst_888
                                        #   in Loop: Header=BB0_3 Depth=3
	incq	%r14
	decl	%eax
	movzwl	%ax, %ecx
	movw	%dx, 68(%rsp,%rcx,2)
.LBB0_30:                               # %inst_889
                                        #   in Loop: Header=BB0_3 Depth=3
	incq	%r14
	movzwl	%dx, %ecx
	movzwl	68(%rsp,%rcx,2), %r13d
.LBB0_31:                               # %inst_890
                                        #   in Loop: Header=BB0_3 Depth=3
	incq	%r14
	movzwl	%r13w, %ecx
	cmpl	$32766, %ecx                    # imm = 0x7FFE
	jbe	.LBB0_2342
.LBB0_32:                               # %inst_940
                                        #   in Loop: Header=BB0_3 Depth=3
	incq	%r14
	movw	$3, 206(%rsp)
.LBB0_33:                               # %inst_941
                                        #   in Loop: Header=BB0_3 Depth=3
	incq	%r14
	incl	%eax
.LBB0_34:                               # %inst_942
                                        #   in Loop: Header=BB0_3 Depth=3
	incl	%eax
	incq	%r14
	movl	%eax, %esi
	jmp	.LBB0_50
.LBB0_35:                               # %inst_8.loopexit
                                        #   in Loop: Header=BB0_3 Depth=3
	movl	%ebx, %ebp
	movl	32(%rsp), %eax                  # 4-byte Reload
	movl	%eax, %r11d
	movl	16(%rsp), %eax                  # 4-byte Reload
	movl	%eax, %r9d
	movl	%r10d, %r15d
	movl	24(%rsp), %r12d                 # 4-byte Reload
                                        # kill: def $r12w killed $r12w killed $r12d def $r12d
	movl	20(%rsp), %eax                  # 4-byte Reload
	movl	%eax, %r8d
	movzwl	8(%rsp), %eax                   # 2-byte Folded Reload
	movl	%eax, %edi
	movq	%rcx, %r14
	jmp	.LBB0_23
.LBB0_36:                               # %inst_9.loopexit
                                        #   in Loop: Header=BB0_3 Depth=3
	movl	%ebx, %ebp
	movl	32(%rsp), %eax                  # 4-byte Reload
	movl	%eax, %r11d
	movl	16(%rsp), %eax                  # 4-byte Reload
	movl	%eax, %r9d
	movl	%r10d, %r15d
	movl	24(%rsp), %r12d                 # 4-byte Reload
                                        # kill: def $r12w killed $r12w killed $r12d def $r12d
	movl	20(%rsp), %eax                  # 4-byte Reload
	movl	%eax, %r8d
	movzwl	8(%rsp), %eax                   # 2-byte Folded Reload
	movl	%eax, %edi
	movq	%rcx, %r14
	movq	56(%rsp), %rax                  # 8-byte Reload
	jmp	.LBB0_24
.LBB0_37:                               # %inst_11.loopexit
                                        #   in Loop: Header=BB0_3 Depth=3
	movl	%ebx, %ebp
	movl	32(%rsp), %eax                  # 4-byte Reload
	movl	%eax, %r11d
	movl	16(%rsp), %eax                  # 4-byte Reload
	movl	%eax, %r9d
	movl	24(%rsp), %r12d                 # 4-byte Reload
                                        # kill: def $r12w killed $r12w killed $r12d def $r12d
	movl	20(%rsp), %eax                  # 4-byte Reload
	movl	%eax, %r8d
	movzwl	8(%rsp), %eax                   # 2-byte Folded Reload
	movl	%eax, %edi
	movq	%rcx, %r14
	jmp	.LBB0_13
.LBB0_38:                               # %inst_12.loopexit
                                        #   in Loop: Header=BB0_3 Depth=3
	movl	%ebx, %ebp
	movl	32(%rsp), %eax                  # 4-byte Reload
	movl	%eax, %r11d
	movl	16(%rsp), %eax                  # 4-byte Reload
	movl	%eax, %r9d
	movl	24(%rsp), %r12d                 # 4-byte Reload
                                        # kill: def $r12w killed $r12w killed $r12d def $r12d
	movl	20(%rsp), %eax                  # 4-byte Reload
	movl	%eax, %r8d
	movzwl	8(%rsp), %eax                   # 2-byte Folded Reload
	movl	%eax, %edi
	movq	%rcx, %r14
	movq	56(%rsp), %rax                  # 8-byte Reload
	jmp	.LBB0_14
.LBB0_39:                               # %inst_13.loopexit
                                        #   in Loop: Header=BB0_3 Depth=3
	movl	%ebx, %ebp
	movl	32(%rsp), %eax                  # 4-byte Reload
	movl	%eax, %r11d
	movl	16(%rsp), %eax                  # 4-byte Reload
	movl	%eax, %r9d
	movl	24(%rsp), %r12d                 # 4-byte Reload
                                        # kill: def $r12w killed $r12w killed $r12d def $r12d
	movl	20(%rsp), %eax                  # 4-byte Reload
	movl	%eax, %r8d
	movzwl	8(%rsp), %eax                   # 2-byte Folded Reload
	movl	%eax, %edi
	movq	%rcx, %r14
	jmp	.LBB0_15
.LBB0_40:                               # %inst_14.loopexit
                                        #   in Loop: Header=BB0_3 Depth=3
	movl	%ebx, %ebp
	movl	32(%rsp), %eax                  # 4-byte Reload
	movl	%eax, %r11d
	movl	16(%rsp), %eax                  # 4-byte Reload
	movl	%eax, %r9d
	movl	24(%rsp), %r12d                 # 4-byte Reload
                                        # kill: def $r12w killed $r12w killed $r12d def $r12d
	movl	20(%rsp), %eax                  # 4-byte Reload
	movl	%eax, %r8d
	movzwl	8(%rsp), %eax                   # 2-byte Folded Reload
	movl	%eax, %edi
	movq	%rcx, %r14
	movq	56(%rsp), %rcx                  # 8-byte Reload
	jmp	.LBB0_16
.LBB0_41:                               # %inst_15.loopexit
                                        #   in Loop: Header=BB0_3 Depth=3
	movl	%ebx, %ebp
	movl	32(%rsp), %eax                  # 4-byte Reload
	movl	%eax, %r11d
	movl	16(%rsp), %eax                  # 4-byte Reload
	movl	%eax, %r9d
	movl	24(%rsp), %r12d                 # 4-byte Reload
                                        # kill: def $r12w killed $r12w killed $r12d def $r12d
	movl	20(%rsp), %eax                  # 4-byte Reload
	movl	%eax, %r8d
	movzwl	8(%rsp), %eax                   # 2-byte Folded Reload
	movl	%eax, %edi
	movq	%rcx, %r14
	movq	56(%rsp), %rcx                  # 8-byte Reload
	jmp	.LBB0_17
.LBB0_42:                               # %inst_16.loopexit
                                        #   in Loop: Header=BB0_3 Depth=3
	movl	%ebx, %ebp
	movl	32(%rsp), %eax                  # 4-byte Reload
	movl	%eax, %r11d
	movl	16(%rsp), %eax                  # 4-byte Reload
	movl	%eax, %r9d
	movl	%r10d, %r15d
	movl	24(%rsp), %r12d                 # 4-byte Reload
                                        # kill: def $r12w killed $r12w killed $r12d def $r12d
	movl	20(%rsp), %eax                  # 4-byte Reload
	movl	%eax, %r8d
	movzwl	8(%rsp), %eax                   # 2-byte Folded Reload
	movl	%eax, %edi
	movq	%rcx, %r14
	movq	56(%rsp), %rcx                  # 8-byte Reload
	jmp	.LBB0_18
.LBB0_43:                               # %inst_10.loopexit
                                        #   in Loop: Header=BB0_3 Depth=3
	movq	%rcx, %r14
	incq	%r14
	movl	%ebx, %ebp
	movl	32(%rsp), %eax                  # 4-byte Reload
	movl	%eax, %r11d
	movl	16(%rsp), %eax                  # 4-byte Reload
	movl	%eax, %r9d
	movl	%r10d, %r15d
	movl	24(%rsp), %r12d                 # 4-byte Reload
                                        # kill: def $r12w killed $r12w killed $r12d def $r12d
	movl	20(%rsp), %eax                  # 4-byte Reload
	movl	%eax, %r8d
	movzwl	8(%rsp), %eax                   # 2-byte Folded Reload
	movl	%eax, %edi
	jmp	.LBB0_25
.LBB0_44:                               # %inst_20.loopexit
                                        #   in Loop: Header=BB0_3 Depth=3
	movl	%ebx, %eax
	movq	%rax, 48(%rsp)                  # 8-byte Spill
	movl	32(%rsp), %eax                  # 4-byte Reload
	movl	%eax, %r11d
	movl	%r13d, %ebp
	movl	16(%rsp), %eax                  # 4-byte Reload
	movl	%eax, %esi
	movl	%r10d, %r15d
	movl	24(%rsp), %r12d                 # 4-byte Reload
                                        # kill: def $r12w killed $r12w killed $r12d def $r12d
	movl	20(%rsp), %eax                  # 4-byte Reload
	movl	%eax, %r8d
	movzwl	8(%rsp), %eax                   # 2-byte Folded Reload
	movl	%eax, %edi
	movq	%rcx, %r14
	jmp	.LBB0_6
.LBB0_45:                               # %inst_21.loopexit
                                        #   in Loop: Header=BB0_3 Depth=3
	movl	%ebx, %ebp
	movl	32(%rsp), %eax                  # 4-byte Reload
                                        # kill: def $ax killed $ax killed $eax def $rax
	movq	%rax, 32(%rsp)                  # 8-byte Spill
                                        # kill: def $r13w killed $r13w killed $r13d def $r13d
	movl	%r13d, 44(%rsp)                 # 4-byte Spill
	movl	16(%rsp), %eax                  # 4-byte Reload
                                        # kill: def $ax killed $ax killed $eax def $eax
	movl	%eax, 16(%rsp)                  # 4-byte Spill
	movl	%r10d, %r15d
	movl	24(%rsp), %r12d                 # 4-byte Reload
                                        # kill: def $r12w killed $r12w killed $r12d def $r12d
	movl	20(%rsp), %eax                  # 4-byte Reload
	movl	%eax, %r13d
	movzwl	8(%rsp), %eax                   # 2-byte Folded Reload
	movl	%eax, %ebx
	movq	%rcx, %r14
	.p2align	4, 0x90
.LBB0_46:                               # %inst_21
                                        #   in Loop: Header=BB0_3 Depth=3
	incq	%r14
	movl	$1, %edi
	movl	$114, %esi
	callq	urcl_out@PLT
.LBB0_47:                               # %inst_22
                                        #   in Loop: Header=BB0_3 Depth=3
	incq	%r14
	movl	$1, %edi
	movl	$114, %esi
	callq	urcl_out@PLT
.LBB0_48:                               # %inst_23
                                        #   in Loop: Header=BB0_3 Depth=3
	incq	%r14
	movl	$1, %edi
	movl	$111, %esi
	callq	urcl_out@PLT
.LBB0_49:                               # %inst_24
                                        #   in Loop: Header=BB0_3 Depth=3
	movl	$1, %edi
	movl	$114, %esi
	callq	urcl_out@PLT
	incq	%r14
	movq	32(%rsp), %r11                  # 8-byte Reload
	movl	%r13d, %r8d
	movl	16(%rsp), %r9d                  # 4-byte Reload
	movl	44(%rsp), %r13d                 # 4-byte Reload
	movq	%rbx, %rsi
.LBB0_50:                               # %big_switch_table.preheader
                                        #   Parent Loop BB0_1 Depth=1
                                        #     Parent Loop BB0_2 Depth=2
                                        #       Parent Loop BB0_3 Depth=3
                                        # =>      This Loop Header: Depth=4
                                        #           Child Loop BB0_51 Depth 5
                                        #             Child Loop BB0_52 Depth 6
	movzwl	%si, %eax
	movzwl	68(%rsp,%rax,2), %edi
	leal	1(%rsi), %eax
	movl	%ebp, %ebx
	movl	%r11d, %ecx
	movl	%ecx, 32(%rsp)                  # 4-byte Spill
                                        # kill: def $r13w killed $r13w killed $r13d def $r13d
	movl	%r9d, %ecx
	movl	%ecx, 16(%rsp)                  # 4-byte Spill
	movl	%r15d, %r10d
                                        # kill: def $r12w killed $r12w killed $r12d def $r12d
	movl	%r12d, 24(%rsp)                 # 4-byte Spill
	movl	%r8d, %ecx
	.p2align	4, 0x90
.LBB0_51:                               # %big_switch_table
                                        #   Parent Loop BB0_1 Depth=1
                                        #     Parent Loop BB0_2 Depth=2
                                        #       Parent Loop BB0_3 Depth=3
                                        #         Parent Loop BB0_50 Depth=4
                                        # =>        This Loop Header: Depth=5
                                        #             Child Loop BB0_52 Depth 6
	movl	%ecx, 20(%rsp)                  # 4-byte Spill
                                        # kill: def $ax killed $ax killed $eax
	movw	%ax, 8(%rsp)                    # 2-byte Spill
.LBB0_52:                               # %big_switch_table
                                        #   Parent Loop BB0_1 Depth=1
                                        #     Parent Loop BB0_2 Depth=2
                                        #       Parent Loop BB0_3 Depth=3
                                        #         Parent Loop BB0_50 Depth=4
                                        #           Parent Loop BB0_51 Depth=5
                                        # =>          This Inner Loop Header: Depth=6
	leaq	1(%r14), %rcx
	movzwl	%di, %esi
	cmpl	$1341, %esi                     # imm = 0x53D
	ja	.LBB0_2446
# %bb.53:                               # %big_switch_table
                                        #   in Loop: Header=BB0_52 Depth=6
	movw	$425, %r12w                     # imm = 0x1A9
	movw	$391, %dx                       # imm = 0x187
	movw	$212, %ax
	jmpq	*.LJTI0_0(,%rsi,8)
.LBB0_54:                               # %inst_172
                                        #   in Loop: Header=BB0_52 Depth=6
	movzwl	8(%rsp), %edx                   # 2-byte Folded Reload
	movzwl	%dx, %eax
                                        # kill: def $dx killed $dx def $rdx
	incl	%edx
	movzwl	68(%rsp,%rax,2), %edi
	movl	%edx, %eax
	movw	%dx, 8(%rsp)                    # 2-byte Spill
	movq	%rcx, %r14
	jmp	.LBB0_52
.LBB0_55:                               #   in Loop: Header=BB0_52 Depth=6
                                        # kill: def $bx killed $bx killed $ebx
	movl	32(%rsp), %r12d                 # 4-byte Reload
                                        # kill: def $r12w killed $r12w killed $r12d def $r12d
                                        # kill: def $r13w killed $r13w killed $r13d def $r13d
	movl	%r10d, %ebp
	movl	24(%rsp), %edx                  # 4-byte Reload
	movl	%edx, %r15d
	movzwl	8(%rsp), %eax                   # 2-byte Folded Reload
                                        # kill: def $ax killed $ax def $rax
	movq	%rax, 48(%rsp)                  # 8-byte Spill
	movq	%rcx, %r14
	jmp	.LBB0_1739
.LBB0_160:                              #   in Loop: Header=BB0_52 Depth=6
	movl	16(%rsp), %esi                  # 4-byte Reload
	jmp	.LBB0_159
.LBB0_172:                              #   in Loop: Header=BB0_52 Depth=6
	movl	32(%rsp), %edx                  # 4-byte Reload
	jmp	.LBB0_173
.LBB0_379:                              #   in Loop: Header=BB0_52 Depth=6
	movq	%rcx, %r14
	jmp	.LBB0_1409
.LBB0_56:                               #   in Loop: Header=BB0_52 Depth=6
                                        # kill: def $bx killed $bx killed $ebx def $rbx
	movl	32(%rsp), %r12d                 # 4-byte Reload
                                        # kill: def $r12w killed $r12w killed $r12d def $r12d
	movl	%r13d, %esi
	movzwl	8(%rsp), %eax                   # 2-byte Folded Reload
	movl	%eax, %r13d
	movq	%rcx, %r14
	jmp	.LBB0_1559
.LBB0_57:                               #   in Loop: Header=BB0_52 Depth=6
	movl	32(%rsp), %eax                  # 4-byte Reload
	movl	%eax, %r9d
	movl	%r13d, %ebp
	movzwl	8(%rsp), %eax                   # 2-byte Folded Reload
	movl	%eax, %r12d
	movq	%rcx, %r14
	jmp	.LBB0_821
.LBB0_58:                               #   in Loop: Header=BB0_52 Depth=6
	movl	32(%rsp), %eax                  # 4-byte Reload
	movl	%eax, %r9d
	movl	%r13d, %ebp
	movzwl	8(%rsp), %eax                   # 2-byte Folded Reload
	movl	%eax, %r12d
	movq	%rcx, %r14
	jmp	.LBB0_822
.LBB0_59:                               #   in Loop: Header=BB0_52 Depth=6
	movl	%r13d, %ebp
	movq	%rcx, %r14
	jmp	.LBB0_1057
.LBB0_60:                               #   in Loop: Header=BB0_52 Depth=6
                                        # kill: def $bx killed $bx killed $ebx
	movl	32(%rsp), %r12d                 # 4-byte Reload
                                        # kill: def $r12w killed $r12w killed $r12d def $r12d
                                        # kill: def $r13w killed $r13w killed $r13d def $r13d
	movl	%r10d, %ebp
	movl	24(%rsp), %edx                  # 4-byte Reload
	movl	%edx, %r15d
	movzwl	8(%rsp), %eax                   # 2-byte Folded Reload
                                        # kill: def $ax killed $ax def $rax
	movq	%rax, 48(%rsp)                  # 8-byte Spill
	movq	%rcx, %r14
	jmp	.LBB0_1737
.LBB0_61:                               #   in Loop: Header=BB0_52 Depth=6
	movl	%ebx, %eax
	movq	%rcx, %r14
	jmp	.LBB0_1107
.LBB0_62:                               #   in Loop: Header=BB0_52 Depth=6
	movl	%r13d, %esi
                                        # kill: def $bx killed $bx killed $ebx def $ebx
	movl	32(%rsp), %eax                  # 4-byte Reload
                                        # kill: def $ax killed $ax killed $eax def $eax
	movl	24(%rsp), %r13d                 # 4-byte Reload
                                        # kill: def $r13w killed $r13w killed $r13d def $r13d
	movzwl	8(%rsp), %edx                   # 2-byte Folded Reload
                                        # kill: def $dx killed $dx def $rdx
	movq	%rcx, %r14
	jmp	.LBB0_1789
.LBB0_63:                               # %inst_26
                                        #   in Loop: Header=BB0_52 Depth=6
	addq	$2, %r14
	movq	%r14, %rcx
	jmp	.LBB0_1377
.LBB0_64:                               # %inst_28
                                        #   in Loop: Header=BB0_52 Depth=6
	addq	$2, %r14
	movl	%r13d, %eax
	addl	$87, %eax
	movl	%eax, %r13d
	movq	%r14, %rcx
.LBB0_65:                               # %inst_29
                                        #   in Loop: Header=BB0_52 Depth=6
	incq	%rcx
	movl	16(%rsp), %eax                  # 4-byte Reload
                                        # kill: def $ax killed $ax killed $eax def $eax
	incl	%eax
	movl	%eax, %ebp
	jmp	.LBB0_67
.LBB0_66:                               #   in Loop: Header=BB0_52 Depth=6
	movl	16(%rsp), %ebp                  # 4-byte Reload
.LBB0_67:                               # %inst_30
                                        #   in Loop: Header=BB0_52 Depth=6
	movq	%rcx, %r14
                                        # kill: def $bp killed $bp killed $ebp def $ebp
	incq	%r14
	movl	$32, %edi
	movl	%ebp, %esi
	callq	urcl_out@PLT
                                        # kill: def $bp killed $bp killed $ebp def $ebp
	movl	%ebp, 16(%rsp)                  # 4-byte Spill
	movq	%r14, %rcx
.LBB0_68:                               # %inst_31
                                        #   in Loop: Header=BB0_52 Depth=6
	movq	%rcx, %r14
	incq	%r14
	movl	$33, %edi
	callq	urcl_in@PLT
	movl	%eax, %r10d
	movq	%r14, %rcx
.LBB0_69:                               # %inst_32
                                        #   in Loop: Header=BB0_52 Depth=6
	movl	%r10d, %eax
	movl	%r13d, %edx
	incq	%rcx
	movzwl	%r13w, %edx
	movw	%r10w, 68(%rsp,%rdx,2)
	jmp	.LBB0_1400
.LBB0_70:                               # %inst_34
                                        #   in Loop: Header=BB0_52 Depth=6
	addq	$2, %r14
	movl	%r13d, %eax
	addl	$87, %eax
	movl	%eax, %r13d
	movq	%r14, %rcx
.LBB0_71:                               # %inst_35
                                        #   in Loop: Header=BB0_52 Depth=6
	incq	%rcx
	movl	32(%rsp), %eax                  # 4-byte Reload
                                        # kill: def $ax killed $ax killed $eax def $eax
	addl	$87, %eax
                                        # kill: def $ax killed $ax killed $eax def $eax
	jmp	.LBB0_73
.LBB0_72:                               #   in Loop: Header=BB0_52 Depth=6
	movl	32(%rsp), %eax                  # 4-byte Reload
.LBB0_73:                               # %inst_36
                                        #   in Loop: Header=BB0_52 Depth=6
	incq	%rcx
                                        # kill: def $bx killed $bx killed $ebx def $ebx
	addl	$87, %ebx
                                        # kill: def $bx killed $bx killed $ebx def $ebx
	jmp	.LBB0_75
.LBB0_74:                               #   in Loop: Header=BB0_52 Depth=6
	movl	32(%rsp), %eax                  # 4-byte Reload
.LBB0_75:                               # %inst_37
                                        #   in Loop: Header=BB0_52 Depth=6
                                        # kill: def $ax killed $ax killed $eax
	incq	%rcx
	movzwl	%ax, %eax
	movzwl	68(%rsp,%rax,2), %eax
	movl	%eax, %edx
	jmp	.LBB0_77
.LBB0_76:                               #   in Loop: Header=BB0_52 Depth=6
	movl	32(%rsp), %edx                  # 4-byte Reload
.LBB0_77:                               # %inst_38
                                        #   in Loop: Header=BB0_52 Depth=6
	movl	%ebx, %eax
	incq	%rcx
	movzwl	%bx, %eax
	movzwl	68(%rsp,%rax,2), %eax
	movl	%eax, %ebx
.LBB0_78:                               # %inst_39
                                        #   in Loop: Header=BB0_52 Depth=6
	movl	%edx, %eax
                                        # kill: def $bx killed $bx killed $ebx def $ebx
	incq	%rcx
	addl	%eax, %ebx
	jmp	.LBB0_109
.LBB0_79:                               #   in Loop: Header=BB0_52 Depth=6
	movl	32(%rsp), %edx                  # 4-byte Reload
	jmp	.LBB0_78
.LBB0_80:                               # %inst_42
                                        #   in Loop: Header=BB0_52 Depth=6
	addq	$2, %r14
	movl	%r13d, %eax
	addl	$87, %eax
	movl	%eax, %r13d
	movq	%r14, %rcx
.LBB0_81:                               # %inst_43
                                        #   in Loop: Header=BB0_52 Depth=6
	incq	%rcx
	movl	32(%rsp), %eax                  # 4-byte Reload
                                        # kill: def $ax killed $ax killed $eax def $eax
	addl	$87, %eax
                                        # kill: def $ax killed $ax killed $eax def $eax
	jmp	.LBB0_83
.LBB0_82:                               #   in Loop: Header=BB0_52 Depth=6
	movl	32(%rsp), %eax                  # 4-byte Reload
.LBB0_83:                               # %inst_44
                                        #   in Loop: Header=BB0_52 Depth=6
	incq	%rcx
                                        # kill: def $bx killed $bx killed $ebx def $ebx
	addl	$87, %ebx
                                        # kill: def $bx killed $bx killed $ebx def $ebx
	jmp	.LBB0_85
.LBB0_84:                               #   in Loop: Header=BB0_52 Depth=6
	movl	32(%rsp), %eax                  # 4-byte Reload
.LBB0_85:                               # %inst_45
                                        #   in Loop: Header=BB0_52 Depth=6
                                        # kill: def $ax killed $ax killed $eax
	incq	%rcx
	movzwl	%ax, %eax
	movzwl	68(%rsp,%rax,2), %eax
	movl	%eax, %edx
	jmp	.LBB0_87
.LBB0_86:                               #   in Loop: Header=BB0_52 Depth=6
	movl	32(%rsp), %edx                  # 4-byte Reload
.LBB0_87:                               # %inst_46
                                        #   in Loop: Header=BB0_52 Depth=6
	movl	%ebx, %eax
	incq	%rcx
	movzwl	%bx, %eax
	movzwl	68(%rsp,%rax,2), %eax
	movl	%eax, %ebx
.LBB0_88:                               # %inst_47
                                        #   in Loop: Header=BB0_52 Depth=6
	movl	%edx, %eax
                                        # kill: def $bx killed $bx killed $ebx def $ebx
	incq	%rcx
	movl	%eax, %edx
	subl	%ebx, %edx
	movl	%edx, %ebx
	jmp	.LBB0_110
.LBB0_89:                               #   in Loop: Header=BB0_52 Depth=6
	movl	32(%rsp), %edx                  # 4-byte Reload
	jmp	.LBB0_88
.LBB0_90:                               # %inst_50
                                        #   in Loop: Header=BB0_52 Depth=6
	addq	$2, %r14
	movl	%r13d, %eax
	addl	$87, %eax
	movl	%eax, %r13d
	movq	%r14, %rcx
.LBB0_91:                               # %inst_51
                                        #   in Loop: Header=BB0_52 Depth=6
	incq	%rcx
	movl	32(%rsp), %eax                  # 4-byte Reload
                                        # kill: def $ax killed $ax killed $eax def $eax
	addl	$87, %eax
                                        # kill: def $ax killed $ax killed $eax def $eax
	jmp	.LBB0_93
.LBB0_92:                               #   in Loop: Header=BB0_52 Depth=6
	movl	32(%rsp), %eax                  # 4-byte Reload
.LBB0_93:                               # %inst_52
                                        #   in Loop: Header=BB0_52 Depth=6
	incq	%rcx
                                        # kill: def $bx killed $bx killed $ebx def $ebx
	addl	$87, %ebx
                                        # kill: def $bx killed $bx killed $ebx def $ebx
	jmp	.LBB0_95
.LBB0_94:                               #   in Loop: Header=BB0_52 Depth=6
	movl	32(%rsp), %eax                  # 4-byte Reload
.LBB0_95:                               # %inst_53
                                        #   in Loop: Header=BB0_52 Depth=6
                                        # kill: def $ax killed $ax killed $eax
	incq	%rcx
	movzwl	%ax, %eax
	movzwl	68(%rsp,%rax,2), %eax
	movl	%eax, %edx
	jmp	.LBB0_97
.LBB0_96:                               #   in Loop: Header=BB0_52 Depth=6
	movl	32(%rsp), %edx                  # 4-byte Reload
.LBB0_97:                               # %inst_54
                                        #   in Loop: Header=BB0_52 Depth=6
	movl	%ebx, %eax
	incq	%rcx
	movzwl	%bx, %eax
	movzwl	68(%rsp,%rax,2), %eax
	movl	%eax, %ebx
.LBB0_98:                               # %inst_55
                                        #   in Loop: Header=BB0_52 Depth=6
	movl	%edx, %eax
                                        # kill: def $bx killed $bx killed $ebx def $ebx
	incq	%rcx
	andl	%eax, %ebx
	jmp	.LBB0_109
.LBB0_99:                               #   in Loop: Header=BB0_52 Depth=6
	movl	32(%rsp), %edx                  # 4-byte Reload
	jmp	.LBB0_98
.LBB0_100:                              # %inst_58
                                        #   in Loop: Header=BB0_52 Depth=6
	addq	$2, %r14
	movl	%r13d, %eax
	addl	$87, %eax
	movl	%eax, %r13d
	movq	%r14, %rcx
.LBB0_101:                              # %inst_59
                                        #   in Loop: Header=BB0_52 Depth=6
	incq	%rcx
	movl	32(%rsp), %eax                  # 4-byte Reload
                                        # kill: def $ax killed $ax killed $eax def $eax
	addl	$87, %eax
                                        # kill: def $ax killed $ax killed $eax def $eax
	jmp	.LBB0_103
.LBB0_102:                              #   in Loop: Header=BB0_52 Depth=6
	movl	32(%rsp), %eax                  # 4-byte Reload
.LBB0_103:                              # %inst_60
                                        #   in Loop: Header=BB0_52 Depth=6
	incq	%rcx
                                        # kill: def $bx killed $bx killed $ebx def $ebx
	addl	$87, %ebx
                                        # kill: def $bx killed $bx killed $ebx def $ebx
	jmp	.LBB0_105
.LBB0_104:                              #   in Loop: Header=BB0_52 Depth=6
	movl	32(%rsp), %eax                  # 4-byte Reload
.LBB0_105:                              # %inst_61
                                        #   in Loop: Header=BB0_52 Depth=6
                                        # kill: def $ax killed $ax killed $eax
	incq	%rcx
	movzwl	%ax, %eax
	movzwl	68(%rsp,%rax,2), %eax
	movl	%eax, %edx
	jmp	.LBB0_107
.LBB0_106:                              #   in Loop: Header=BB0_52 Depth=6
	movl	32(%rsp), %edx                  # 4-byte Reload
.LBB0_107:                              # %inst_62
                                        #   in Loop: Header=BB0_52 Depth=6
	movl	%ebx, %eax
	incq	%rcx
	movzwl	%bx, %eax
	movzwl	68(%rsp,%rax,2), %eax
	movl	%eax, %ebx
.LBB0_108:                              # %inst_63
                                        #   in Loop: Header=BB0_52 Depth=6
	movl	%edx, %eax
                                        # kill: def $bx killed $bx killed $ebx def $ebx
	incq	%rcx
	orl	%eax, %ebx
	notl	%ebx
.LBB0_109:                              # %inst_40
                                        #   in Loop: Header=BB0_52 Depth=6
                                        # kill: def $bx killed $bx killed $ebx def $ebx
.LBB0_110:                              # %inst_40
                                        #   in Loop: Header=BB0_52 Depth=6
                                        # kill: def $ax killed $ax killed $eax def $eax
	movl	%eax, 32(%rsp)                  # 4-byte Spill
	jmp	.LBB0_132
.LBB0_111:                              #   in Loop: Header=BB0_52 Depth=6
	movl	32(%rsp), %edx                  # 4-byte Reload
	jmp	.LBB0_108
.LBB0_112:                              # %inst_66
                                        #   in Loop: Header=BB0_52 Depth=6
	addq	$2, %r14
	movl	%r13d, %eax
	addl	$87, %eax
	movl	%eax, %r13d
	movq	%r14, %rcx
.LBB0_113:                              # %inst_67
                                        #   in Loop: Header=BB0_52 Depth=6
	incq	%rcx
	movl	32(%rsp), %eax                  # 4-byte Reload
                                        # kill: def $ax killed $ax killed $eax def $eax
	addl	$87, %eax
                                        # kill: def $ax killed $ax killed $eax def $eax
	jmp	.LBB0_115
.LBB0_114:                              #   in Loop: Header=BB0_52 Depth=6
	movl	32(%rsp), %eax                  # 4-byte Reload
.LBB0_115:                              # %inst_68
                                        #   in Loop: Header=BB0_52 Depth=6
	incq	%rcx
                                        # kill: def $bx killed $bx killed $ebx def $ebx
	addl	$87, %ebx
                                        # kill: def $bx killed $bx killed $ebx def $ebx
	jmp	.LBB0_117
.LBB0_116:                              #   in Loop: Header=BB0_52 Depth=6
	movl	32(%rsp), %eax                  # 4-byte Reload
.LBB0_117:                              # %inst_69
                                        #   in Loop: Header=BB0_52 Depth=6
                                        # kill: def $ax killed $ax killed $eax
	incq	%rcx
	movzwl	%ax, %eax
	movzwl	68(%rsp,%rax,2), %eax
	movl	%eax, %edx
	jmp	.LBB0_119
.LBB0_118:                              #   in Loop: Header=BB0_52 Depth=6
	movl	32(%rsp), %edx                  # 4-byte Reload
.LBB0_119:                              # %inst_70
                                        #   in Loop: Header=BB0_52 Depth=6
	movl	%ebx, %eax
	incq	%rcx
	movzwl	%bx, %eax
	movzwl	68(%rsp,%rax,2), %eax
	movl	%eax, %ebx
.LBB0_120:                              # %inst_71
                                        #   in Loop: Header=BB0_52 Depth=6
	movq	%rcx, %rax
                                        # kill: def $dx killed $dx killed $edx def $edx
	movl	%ebx, %ecx
	incq	%rax
	movl	%edx, %ebx
                                        # kill: def $cl killed $cl killed $cx
	shll	%cl, %ebx
                                        # kill: def $bx killed $bx killed $ebx def $ebx
                                        # kill: def $dx killed $dx killed $edx def $edx
	movl	%edx, 32(%rsp)                  # 4-byte Spill
	jmp	.LBB0_131
.LBB0_121:                              #   in Loop: Header=BB0_52 Depth=6
	movl	32(%rsp), %edx                  # 4-byte Reload
	jmp	.LBB0_120
.LBB0_122:                              # %inst_74
                                        #   in Loop: Header=BB0_52 Depth=6
	addq	$2, %r14
	movl	%r13d, %eax
	addl	$87, %eax
	movl	%eax, %r13d
	movq	%r14, %rcx
.LBB0_123:                              # %inst_75
                                        #   in Loop: Header=BB0_52 Depth=6
	incq	%rcx
	movl	32(%rsp), %eax                  # 4-byte Reload
                                        # kill: def $ax killed $ax killed $eax def $eax
	addl	$87, %eax
                                        # kill: def $ax killed $ax killed $eax def $eax
	jmp	.LBB0_125
.LBB0_124:                              #   in Loop: Header=BB0_52 Depth=6
	movl	32(%rsp), %eax                  # 4-byte Reload
.LBB0_125:                              # %inst_76
                                        #   in Loop: Header=BB0_52 Depth=6
	incq	%rcx
                                        # kill: def $bx killed $bx killed $ebx def $ebx
	addl	$87, %ebx
                                        # kill: def $bx killed $bx killed $ebx def $ebx
	jmp	.LBB0_127
.LBB0_126:                              #   in Loop: Header=BB0_52 Depth=6
	movl	32(%rsp), %eax                  # 4-byte Reload
.LBB0_127:                              # %inst_77
                                        #   in Loop: Header=BB0_52 Depth=6
                                        # kill: def $ax killed $ax killed $eax
	incq	%rcx
	movzwl	%ax, %eax
	movzwl	68(%rsp,%rax,2), %eax
	movl	%eax, %edx
	jmp	.LBB0_129
.LBB0_128:                              #   in Loop: Header=BB0_52 Depth=6
	movl	32(%rsp), %edx                  # 4-byte Reload
.LBB0_129:                              # %inst_78
                                        #   in Loop: Header=BB0_52 Depth=6
	movl	%ebx, %eax
	incq	%rcx
	movzwl	%bx, %eax
	movzwl	68(%rsp,%rax,2), %eax
	movl	%eax, %ebx
.LBB0_130:                              # %inst_79
                                        #   in Loop: Header=BB0_52 Depth=6
	movq	%rcx, %rax
	movl	%edx, 32(%rsp)                  # 4-byte Spill
                                        # kill: def $dx killed $dx killed $edx
	movl	%ebx, %ecx
	incq	%rax
	movzwl	%dx, %ebx
                                        # kill: def $cl killed $cl killed $cx
	shrl	%cl, %ebx
                                        # kill: def $bx killed $bx killed $ebx def $ebx
.LBB0_131:                              # %inst_40
                                        #   in Loop: Header=BB0_52 Depth=6
	movq	%rax, %rcx
.LBB0_132:                              # %inst_40
                                        #   in Loop: Header=BB0_52 Depth=6
	movl	%r13d, %eax
	movl	%ebx, %edx
	incq	%rcx
	movzwl	%r13w, %eax
	movw	%bx, 68(%rsp,%rax,2)
	jmp	.LBB0_1400
.LBB0_133:                              #   in Loop: Header=BB0_52 Depth=6
	movl	32(%rsp), %edx                  # 4-byte Reload
	jmp	.LBB0_130
.LBB0_134:                              # %inst_82
                                        #   in Loop: Header=BB0_52 Depth=6
	addq	$2, %r14
	movl	32(%rsp), %eax                  # 4-byte Reload
                                        # kill: def $ax killed $ax killed $eax def $eax
	addl	$87, %eax
                                        # kill: def $ax killed $ax killed $eax def $eax
	movq	%r14, %rcx
	jmp	.LBB0_136
.LBB0_135:                              #   in Loop: Header=BB0_52 Depth=6
	movl	32(%rsp), %eax                  # 4-byte Reload
.LBB0_136:                              # %inst_83
                                        #   in Loop: Header=BB0_52 Depth=6
	incq	%rcx
                                        # kill: def $bx killed $bx killed $ebx def $ebx
	addl	$87, %ebx
                                        # kill: def $bx killed $bx killed $ebx def $ebx
	jmp	.LBB0_138
.LBB0_137:                              #   in Loop: Header=BB0_52 Depth=6
	movl	32(%rsp), %eax                  # 4-byte Reload
.LBB0_138:                              # %inst_84
                                        #   in Loop: Header=BB0_52 Depth=6
                                        # kill: def $ax killed $ax killed $eax
	incq	%rcx
	movzwl	%ax, %eax
	movzwl	68(%rsp,%rax,2), %eax
	movl	%eax, %edx
	jmp	.LBB0_140
.LBB0_139:                              #   in Loop: Header=BB0_52 Depth=6
	movl	32(%rsp), %edx                  # 4-byte Reload
.LBB0_140:                              # %inst_85
                                        #   in Loop: Header=BB0_52 Depth=6
	movl	%ebx, %eax
	incq	%rcx
	movzwl	%bx, %eax
	movzwl	68(%rsp,%rax,2), %eax
	movl	%eax, %ebx
	jmp	.LBB0_142
.LBB0_141:                              #   in Loop: Header=BB0_52 Depth=6
	movl	32(%rsp), %edx                  # 4-byte Reload
.LBB0_142:                              # %inst_86
                                        #   in Loop: Header=BB0_52 Depth=6
	incq	%rcx
	movl	%edx, 32(%rsp)                  # 4-byte Spill
	cmpw	%bx, %dx
	jae	.LBB0_154
	jmp	.LBB0_1400
.LBB0_145:                              # %inst_94
                                        #   in Loop: Header=BB0_52 Depth=6
	addq	$2, %r14
	movl	32(%rsp), %eax                  # 4-byte Reload
                                        # kill: def $ax killed $ax killed $eax def $eax
	addl	$87, %eax
                                        # kill: def $ax killed $ax killed $eax def $eax
	movq	%r14, %rcx
	jmp	.LBB0_147
.LBB0_146:                              #   in Loop: Header=BB0_52 Depth=6
	movl	32(%rsp), %eax                  # 4-byte Reload
.LBB0_147:                              # %inst_95
                                        #   in Loop: Header=BB0_52 Depth=6
	incq	%rcx
                                        # kill: def $bx killed $bx killed $ebx def $ebx
	addl	$87, %ebx
                                        # kill: def $bx killed $bx killed $ebx def $ebx
	jmp	.LBB0_149
.LBB0_148:                              #   in Loop: Header=BB0_52 Depth=6
	movl	32(%rsp), %eax                  # 4-byte Reload
.LBB0_149:                              # %inst_96
                                        #   in Loop: Header=BB0_52 Depth=6
                                        # kill: def $ax killed $ax killed $eax
	incq	%rcx
	movzwl	%ax, %eax
	movzwl	68(%rsp,%rax,2), %eax
	movl	%eax, %edx
	jmp	.LBB0_151
.LBB0_150:                              #   in Loop: Header=BB0_52 Depth=6
	movl	32(%rsp), %edx                  # 4-byte Reload
.LBB0_151:                              # %inst_97
                                        #   in Loop: Header=BB0_52 Depth=6
	movl	%ebx, %eax
	incq	%rcx
	movzwl	%bx, %eax
	movzwl	68(%rsp,%rax,2), %eax
	movl	%eax, %ebx
	jmp	.LBB0_153
.LBB0_152:                              #   in Loop: Header=BB0_52 Depth=6
	movl	32(%rsp), %edx                  # 4-byte Reload
.LBB0_153:                              # %inst_98
                                        #   in Loop: Header=BB0_52 Depth=6
	incq	%rcx
	movl	%edx, 32(%rsp)                  # 4-byte Spill
	cmpw	%bx, %dx
	jne	.LBB0_1400
.LBB0_154:                              # %inst_87
                                        #   in Loop: Header=BB0_52 Depth=6
	incq	%rcx
	movl	%r13d, %eax
	addl	$87, %eax
	movl	%eax, %r13d
.LBB0_155:                              # %inst_88
                                        #   in Loop: Header=BB0_52 Depth=6
	movl	%r13d, %eax
	incq	%rcx
	movzwl	%r13w, %eax
	movzwl	68(%rsp,%rax,2), %eax
	movl	%eax, %r13d
.LBB0_156:                              # %inst_89
                                        #   in Loop: Header=BB0_52 Depth=6
	movq	56(%rsp), %rax                  # 8-byte Reload
	incq	%rcx
	movzwl	%ax, %eax
	movzwl	68(%rsp,%rax,2), %eax
	movl	%eax, %r10d
.LBB0_157:                              # %inst_90
                                        #   in Loop: Header=BB0_52 Depth=6
	movl	%r10d, %eax
	incq	%rcx
	incl	%eax
	movzwl	%ax, %eax
	movzwl	68(%rsp,%rax,2), %eax
	movl	%eax, %r10d
.LBB0_158:                              # %inst_91
                                        #   in Loop: Header=BB0_52 Depth=6
	movl	%r10d, %eax
	movl	%r13d, %edx
	incq	%rcx
	leal	(%rax,%rdx), %esi
                                        # kill: def $si killed $si killed $esi def $esi
.LBB0_159:                              # %inst_92
                                        #   in Loop: Header=BB0_52 Depth=6
	movl	%esi, %eax
	incq	%rcx
	decl	%eax
                                        # kill: def $ax killed $ax killed $eax def $eax
	movl	%eax, 16(%rsp)                  # 4-byte Spill
	jmp	.LBB0_1400
.LBB0_161:                              # %inst_106
                                        #   in Loop: Header=BB0_52 Depth=6
	addq	$2, %r14
	movl	32(%rsp), %eax                  # 4-byte Reload
                                        # kill: def $ax killed $ax killed $eax def $eax
	addl	$87, %eax
	movl	%eax, %edx
	movq	%r14, %rcx
	jmp	.LBB0_163
.LBB0_162:                              #   in Loop: Header=BB0_52 Depth=6
	movl	32(%rsp), %edx                  # 4-byte Reload
.LBB0_163:                              # %inst_107
                                        #   in Loop: Header=BB0_52 Depth=6
	incq	%rcx
	movl	%r13d, %eax
	addl	$87, %eax
	movl	%eax, %r13d
	jmp	.LBB0_165
.LBB0_164:                              #   in Loop: Header=BB0_52 Depth=6
	movl	32(%rsp), %edx                  # 4-byte Reload
.LBB0_165:                              # %inst_108
                                        #   in Loop: Header=BB0_52 Depth=6
	movl	%edx, %eax
	incq	%rcx
	movzwl	%dx, %eax
	movzwl	68(%rsp,%rax,2), %eax
	movl	%eax, %edx
	jmp	.LBB0_173
.LBB0_167:                              # %inst_111
                                        #   in Loop: Header=BB0_52 Depth=6
	addq	$2, %r14
	movl	32(%rsp), %eax                  # 4-byte Reload
                                        # kill: def $ax killed $ax killed $eax def $eax
	addl	$87, %eax
	movl	%eax, %edx
	movq	%r14, %rcx
	jmp	.LBB0_169
.LBB0_168:                              #   in Loop: Header=BB0_52 Depth=6
	movl	32(%rsp), %edx                  # 4-byte Reload
.LBB0_169:                              # %inst_112
                                        #   in Loop: Header=BB0_52 Depth=6
	incq	%rcx
	movl	%r13d, %eax
	addl	$87, %eax
	movl	%eax, %r13d
	jmp	.LBB0_171
.LBB0_170:                              #   in Loop: Header=BB0_52 Depth=6
	movl	32(%rsp), %edx                  # 4-byte Reload
.LBB0_171:                              # %inst_113
                                        #   in Loop: Header=BB0_52 Depth=6
	movl	%r13d, %eax
	incq	%rcx
	movzwl	%r13w, %eax
	movzwl	68(%rsp,%rax,2), %eax
	movl	%eax, %r13d
.LBB0_173:                              # %inst_109
                                        #   in Loop: Header=BB0_52 Depth=6
	movl	%r13d, %eax
	movl	%edx, 32(%rsp)                  # 4-byte Spill
                                        # kill: def $dx killed $dx killed $edx
	incq	%rcx
	movzwl	%dx, %edx
	movzwl	68(%rsp,%rdx,2), %edx
	movzwl	%r13w, %eax
	movw	%dx, 68(%rsp,%rax,2)
	jmp	.LBB0_1400
.LBB0_174:                              #   in Loop: Header=BB0_52 Depth=6
	movl	20(%rsp), %esi                  # 4-byte Reload
	jmp	.LBB0_1385
.LBB0_175:                              #   in Loop: Header=BB0_52 Depth=6
	movl	20(%rsp), %esi                  # 4-byte Reload
	jmp	.LBB0_1386
.LBB0_176:                              #   in Loop: Header=BB0_52 Depth=6
	movl	20(%rsp), %esi                  # 4-byte Reload
	jmp	.LBB0_1387
.LBB0_177:                              # %inst_134
                                        #   in Loop: Header=BB0_52 Depth=6
	addq	$2, %r14
	movzwl	8(%rsp), %edx                   # 2-byte Folded Reload
	movzwl	%dx, %eax
                                        # kill: def $dx killed $dx def $rdx
	incl	%edx
	movzwl	68(%rsp,%rax,2), %eax
	movl	%eax, %r10d
	movl	%edx, %eax
	movw	%dx, 8(%rsp)                    # 2-byte Spill
	movq	%r14, %rcx
.LBB0_178:                              # %inst_135
                                        #   in Loop: Header=BB0_52 Depth=6
	movzwl	8(%rsp), %eax                   # 2-byte Folded Reload
                                        # kill: def $ax killed $ax def $rax
	incq	%rcx
	leal	1(%rax), %edx
	movzwl	%ax, %eax
	movzwl	68(%rsp,%rax,2), %eax
	movl	%eax, %r13d
	movl	%edx, %eax
	movw	%dx, 8(%rsp)                    # 2-byte Spill
.LBB0_179:                              # %inst_136
                                        #   in Loop: Header=BB0_52 Depth=6
	movl	%r13d, %edx
	incq	%rcx
	movzwl	274(%rsp), %eax
                                        # kill: def $ax killed $ax def $eax
	movl	%eax, 24(%rsp)                  # 4-byte Spill
	jmp	.LBB0_181
.LBB0_180:                              #   in Loop: Header=BB0_52 Depth=6
	movl	%r13d, %edx
.LBB0_181:                              # %inst_137
                                        #   in Loop: Header=BB0_52 Depth=6
	movl	24(%rsp), %r13d                 # 4-byte Reload
                                        # kill: def $r13w killed $r13w killed $r13d def $r13d
	incq	%rcx
	decl	%r13d
                                        # kill: def $r13w killed $r13w killed $r13d def $r13d
	movl	%r13d, 24(%rsp)                 # 4-byte Spill
	movl	%edx, %r13d
.LBB0_182:                              # %inst_138
                                        #   in Loop: Header=BB0_52 Depth=6
	movl	24(%rsp), %eax                  # 4-byte Reload
                                        # kill: def $ax killed $ax killed $eax
	movl	%r10d, %edx
	incq	%rcx
	addl	$5, %edx
	movzwl	%dx, %edx
	movw	%ax, 68(%rsp,%rdx,2)
.LBB0_183:                              # %inst_139
                                        #   in Loop: Header=BB0_52 Depth=6
	movl	24(%rsp), %eax                  # 4-byte Reload
                                        # kill: def $ax killed $ax killed $eax
	incq	%rcx
	movl	%eax, %r10d
.LBB0_184:                              # %inst_140
                                        #   in Loop: Header=BB0_52 Depth=6
	incq	%rcx
	jmp	.LBB0_1390
.LBB0_185:                              #   in Loop: Header=BB0_52 Depth=6
	movl	20(%rsp), %esi                  # 4-byte Reload
	jmp	.LBB0_1389
.LBB0_186:                              #   in Loop: Header=BB0_52 Depth=6
	movl	20(%rsp), %esi                  # 4-byte Reload
	jmp	.LBB0_1213
.LBB0_187:                              #   in Loop: Header=BB0_52 Depth=6
	movl	20(%rsp), %esi                  # 4-byte Reload
	jmp	.LBB0_1214
.LBB0_188:                              #   in Loop: Header=BB0_52 Depth=6
	movl	20(%rsp), %esi                  # 4-byte Reload
	jmp	.LBB0_1217
.LBB0_189:                              #   in Loop: Header=BB0_52 Depth=6
	movl	20(%rsp), %eax                  # 4-byte Reload
	jmp	.LBB0_1218
.LBB0_190:                              # %inst_157
                                        #   in Loop: Header=BB0_52 Depth=6
	addq	$2, %r14
	movl	%r13d, %eax
	addl	$87, %eax
	movl	%eax, %r13d
	movq	%r14, %rcx
.LBB0_191:                              # %inst_158
                                        #   in Loop: Header=BB0_52 Depth=6
	movl	%r13d, %eax
	incq	%rcx
	movzwl	%r13w, %eax
	movzwl	68(%rsp,%rax,2), %eax
	movl	%eax, %r13d
.LBB0_192:                              # %inst_159
                                        #   in Loop: Header=BB0_52 Depth=6
	movl	16(%rsp), %ebp                  # 4-byte Reload
	jmp	.LBB0_1393
.LBB0_193:                              #   in Loop: Header=BB0_52 Depth=6
	movl	16(%rsp), %ebp                  # 4-byte Reload
	jmp	.LBB0_1394
.LBB0_194:                              #   in Loop: Header=BB0_52 Depth=6
	movl	16(%rsp), %ebp                  # 4-byte Reload
	jmp	.LBB0_1395
.LBB0_195:                              #   in Loop: Header=BB0_52 Depth=6
	movl	16(%rsp), %ebp                  # 4-byte Reload
	jmp	.LBB0_1396
.LBB0_196:                              #   in Loop: Header=BB0_52 Depth=6
	movl	16(%rsp), %ebp                  # 4-byte Reload
	jmp	.LBB0_1397
.LBB0_197:                              #   in Loop: Header=BB0_52 Depth=6
	movl	16(%rsp), %ebp                  # 4-byte Reload
	jmp	.LBB0_1398
.LBB0_198:                              # %inst_166
                                        #   in Loop: Header=BB0_52 Depth=6
	addq	$2, %r14
	movl	32(%rsp), %eax                  # 4-byte Reload
                                        # kill: def $ax killed $ax killed $eax def $eax
	shll	$4, %eax
                                        # kill: def $ax killed $ax killed $eax def $eax
	movq	%r14, %rcx
	jmp	.LBB0_200
.LBB0_199:                              #   in Loop: Header=BB0_52 Depth=6
	movl	32(%rsp), %eax                  # 4-byte Reload
.LBB0_200:                              # %inst_167
                                        #   in Loop: Header=BB0_52 Depth=6
                                        # kill: def $ax killed $ax killed $eax def $eax
	incq	%rcx
                                        # kill: def $bx killed $bx killed $ebx def $ebx
	orl	%eax, %ebx
                                        # kill: def $bx killed $bx killed $ebx def $ebx
                                        # kill: def $ax killed $ax killed $eax def $eax
	movl	%eax, 32(%rsp)                  # 4-byte Spill
.LBB0_201:                              # %inst_168
                                        #   in Loop: Header=BB0_52 Depth=6
	movl	%ebx, %eax
	incq	%rcx
	cmpw	$37, %bx
	jbe	.LBB0_203
.LBB0_202:                              # %inst_173
                                        #   in Loop: Header=BB0_52 Depth=6
	incq	%rcx
	movw	$6, 206(%rsp)
	jmp	.LBB0_1400
.LBB0_203:                              # %inst_169
                                        #   in Loop: Header=BB0_52 Depth=6
                                        # kill: def $bx killed $bx killed $ebx def $ebx
	incq	%rcx
	addl	$16, %ebx
	movzwl	%bx, %eax
	movzwl	68(%rsp,%rax,2), %eax
	movl	%eax, %ebx
.LBB0_204:                              # %inst_170
                                        #   in Loop: Header=BB0_52 Depth=6
	movq	%rcx, %r14
	movl	%ebx, %edi
	movzwl	8(%rsp), %eax                   # 2-byte Folded Reload
                                        # kill: def $ax killed $ax def $eax
	decl	%eax
	movzwl	%ax, %ecx
	movw	$171, 68(%rsp,%rcx,2)
                                        # kill: def $ax killed $ax killed $eax
	movw	%ax, 8(%rsp)                    # 2-byte Spill
	jmp	.LBB0_52
.LBB0_205:                              # %inst_171
                                        #   in Loop: Header=BB0_52 Depth=6
	addq	$2, %r14
	movzwl	8(%rsp), %eax                   # 2-byte Folded Reload
	movl	%eax, %r9d
	decl	%r9d
	movzwl	%r9w, %eax
	movw	$172, 68(%rsp,%rax,2)
	jmp	.LBB0_1289
.LBB0_206:                              # %inst_175
                                        #   in Loop: Header=BB0_52 Depth=6
	addq	$2, %r14
	movl	%r13d, %eax
	addl	$87, %eax
	movl	%eax, %r13d
	movq	%r14, %rcx
.LBB0_207:                              # %inst_176
                                        #   in Loop: Header=BB0_52 Depth=6
	movl	%r13d, %eax
	incq	%rcx
	movzwl	%r13w, %eax
	movzwl	68(%rsp,%rax,2), %eax
	movl	%eax, %r13d
.LBB0_208:                              # %inst_177
                                        #   in Loop: Header=BB0_52 Depth=6
	movl	%r13d, %eax
	incq	%rcx
	movzwl	8(%rsp), %edx                   # 2-byte Folded Reload
                                        # kill: def $dx killed $dx def $edx
	decl	%edx
	movzwl	%dx, %esi
	movw	%r13w, 68(%rsp,%rsi,2)
	movl	%edx, %eax
	movw	%dx, 8(%rsp)                    # 2-byte Spill
.LBB0_209:                              # %inst_178
                                        #   in Loop: Header=BB0_52 Depth=6
	incq	%rcx
	movzwl	56(%rsp), %eax                  # 2-byte Folded Reload
	movzwl	68(%rsp,%rax,2), %eax
	movl	%eax, %r13d
.LBB0_210:                              # %inst_179
                                        #   in Loop: Header=BB0_52 Depth=6
	movl	%r13d, %eax
	incq	%rcx
	decl	%eax
	movl	%eax, %r13d
.LBB0_211:                              # %inst_180
                                        #   in Loop: Header=BB0_52 Depth=6
	movq	%rcx, %r14
	movzwl	8(%rsp), %eax                   # 2-byte Folded Reload
	movl	%eax, %ecx
	movl	%r13d, %eax
	incq	%r14
	decl	%ecx
	movzwl	%cx, %edx
	movw	$181, 68(%rsp,%rdx,2)
	jmp	.LBB0_212
.LBB0_213:                              # %inst_181
                                        #   in Loop: Header=BB0_52 Depth=6
	addq	$2, %r14
	movzwl	56(%rsp), %eax                  # 2-byte Folded Reload
	movzwl	68(%rsp,%rax,2), %eax
	movl	%eax, %r13d
	movq	%r14, %rcx
.LBB0_214:                              # %inst_182
                                        #   in Loop: Header=BB0_52 Depth=6
	movl	%r13d, %eax
	incq	%rcx
	addl	$5, %eax
	movzwl	%ax, %eax
	movzwl	68(%rsp,%rax,2), %eax
	movl	%eax, %r13d
.LBB0_215:                              # %inst_183
                                        #   in Loop: Header=BB0_52 Depth=6
	movl	%r13d, %eax
	incq	%rcx
	testw	%r13w, %r13w
	je	.LBB0_217
.LBB0_216:                              # %inst_184
                                        #   in Loop: Header=BB0_52 Depth=6
	movq	%rcx, %r14
	movl	%r13d, %eax
	incq	%r14
	movzwl	8(%rsp), %ecx                   # 2-byte Folded Reload
                                        # kill: def $cx killed $cx def $ecx
	decl	%ecx
	movzwl	%cx, %edx
	movw	$185, 68(%rsp,%rdx,2)
.LBB0_212:                              # %inst_947
                                        #   in Loop: Header=BB0_52 Depth=6
                                        # kill: def $cx killed $cx killed $ecx
	movw	%cx, 8(%rsp)                    # 2-byte Spill
	jmp	.LBB0_931
.LBB0_217:                              # %inst_185
                                        #   in Loop: Header=BB0_52 Depth=6
	incq	%rcx
	movzwl	8(%rsp), %edx                   # 2-byte Folded Reload
	movzwl	%dx, %eax
                                        # kill: def $dx killed $dx def $rdx
	incl	%edx
	movzwl	68(%rsp,%rax,2), %eax
	movl	%eax, %r13d
	movl	%edx, %eax
	movw	%dx, 8(%rsp)                    # 2-byte Spill
.LBB0_218:                              # %inst_186
                                        #   in Loop: Header=BB0_52 Depth=6
	movl	%r13d, %eax
	incq	%rcx
	movw	%r13w, 202(%rsp)
.LBB0_219:                              # %inst_187
                                        #   in Loop: Header=BB0_52 Depth=6
	movq	56(%rsp), %rdx                  # 8-byte Reload
	incq	%rcx
	decl	%edx
.LBB0_220:                              # %inst_188
                                        #   in Loop: Header=BB0_52 Depth=6
	incq	%rcx
	movzwl	%dx, %eax
	movzwl	68(%rsp,%rax,2), %eax
	movl	%eax, %ebx
.LBB0_221:                              # %inst_189
                                        #   in Loop: Header=BB0_52 Depth=6
	incq	%rcx
	incl	%edx
	movq	%rdx, 56(%rsp)                  # 8-byte Spill
.LBB0_222:                              # %inst_190
                                        #   in Loop: Header=BB0_52 Depth=6
	movl	%ebx, %eax
	incq	%rcx
	testw	%bx, %bx
	je	.LBB0_230
.LBB0_223:                              # %inst_191
                                        #   in Loop: Header=BB0_52 Depth=6
	incq	%rcx
	movzwl	234(%rsp), %eax
	movl	%eax, %ebx
.LBB0_224:                              # %inst_192
                                        #   in Loop: Header=BB0_52 Depth=6
                                        # kill: def $bx killed $bx killed $ebx def $ebx
	incq	%rcx
	decl	%ebx
                                        # kill: def $bx killed $bx killed $ebx def $ebx
.LBB0_225:                              # %inst_193
                                        #   in Loop: Header=BB0_52 Depth=6
	movl	%ebx, %eax
	incq	%rcx
	movw	%bx, 234(%rsp)
.LBB0_226:                              # %inst_194
                                        #   in Loop: Header=BB0_52 Depth=6
                                        # kill: def $bx killed $bx killed $ebx def $ebx
	incq	%rcx
	incl	%ebx
                                        # kill: def $bx killed $bx killed $ebx def $ebx
.LBB0_227:                              # %inst_195
                                        #   in Loop: Header=BB0_52 Depth=6
	movl	%ebx, %eax
	incq	%rcx
	movzwl	%bx, %eax
	movzwl	68(%rsp,%rax,2), %eax
                                        # kill: def $ax killed $ax def $eax
	movq	56(%rsp), %rdx                  # 8-byte Reload
.LBB0_228:                              # %inst_196
                                        #   in Loop: Header=BB0_52 Depth=6
	movl	%eax, 32(%rsp)                  # 4-byte Spill
                                        # kill: def $ax killed $ax killed $eax
	incq	%rcx
	movq	%rdx, %rsi
	movq	%rdx, 56(%rsp)                  # 8-byte Spill
	movzwl	%dx, %edx
	movw	%ax, 68(%rsp,%rdx,2)
.LBB0_229:                              # %inst_197
                                        #   in Loop: Header=BB0_52 Depth=6
	movl	%ebx, %eax
	incq	%rcx
	movzwl	%bx, %eax
	movw	$0, 68(%rsp,%rax,2)
	jmp	.LBB0_1377
.LBB0_230:                              #   in Loop: Header=BB0_52 Depth=6
	movl	%r13d, %edi
	movl	%r10d, %edx
	movl	24(%rsp), %r13d                 # 4-byte Reload
                                        # kill: def $r13w killed $r13w killed $r13d def $r13d
	movl	20(%rsp), %eax                  # 4-byte Reload
	movl	%eax, %esi
	movzwl	8(%rsp), %eax                   # 2-byte Folded Reload
	movl	%eax, %r9d
	movq	%rcx, %r14
	jmp	.LBB0_1810
.LBB0_231:                              #   in Loop: Header=BB0_52 Depth=6
	movq	56(%rsp), %rdx                  # 8-byte Reload
	jmp	.LBB0_220
.LBB0_232:                              #   in Loop: Header=BB0_52 Depth=6
	movq	56(%rsp), %rdx                  # 8-byte Reload
	jmp	.LBB0_221
.LBB0_233:                              #   in Loop: Header=BB0_52 Depth=6
	movq	56(%rsp), %rdx                  # 8-byte Reload
	movl	32(%rsp), %eax                  # 4-byte Reload
	jmp	.LBB0_228
.LBB0_234:                              # %inst_282
                                        #   in Loop: Header=BB0_52 Depth=6
	addq	$2, %r14
	movq	%r14, %rcx
	movl	16(%rsp), %eax                  # 4-byte Reload
	jmp	.LBB0_236
.LBB0_235:                              #   in Loop: Header=BB0_52 Depth=6
	movl	20(%rsp), %eax                  # 4-byte Reload
                                        # kill: def $ax killed $ax killed $eax def $eax
.LBB0_236:                              # %inst_283
                                        #   in Loop: Header=BB0_52 Depth=6
                                        # kill: def $ax killed $ax killed $eax
	incq	%rcx
	movzwl	8(%rsp), %esi                   # 2-byte Folded Reload
	movzwl	%si, %edx
                                        # kill: def $si killed $si def $rsi
	incl	%esi
	movzwl	68(%rsp,%rdx,2), %edx
                                        # kill: def $ax killed $ax def $eax
	movl	%eax, 20(%rsp)                  # 4-byte Spill
	movl	%edx, %eax
	movl	%eax, 16(%rsp)                  # 4-byte Spill
	movl	%esi, %eax
	movw	%si, 8(%rsp)                    # 2-byte Spill
.LBB0_237:                              # %inst_284
                                        #   in Loop: Header=BB0_52 Depth=6
	movzwl	8(%rsp), %eax                   # 2-byte Folded Reload
                                        # kill: def $ax killed $ax def $rax
	incq	%rcx
	leal	1(%rax), %edx
	movzwl	%ax, %eax
	movzwl	68(%rsp,%rax,2), %eax
	movl	%eax, %r13d
	movl	%edx, %eax
	movw	%dx, 8(%rsp)                    # 2-byte Spill
.LBB0_238:                              # %inst_285
                                        #   in Loop: Header=BB0_52 Depth=6
	movl	%r13d, %eax
	incq	%rcx
	addl	$2, %eax
	movl	%eax, %r13d
.LBB0_239:                              # %inst_286
                                        #   in Loop: Header=BB0_52 Depth=6
	movq	%rcx, %r14
	movl	%r13d, %ebp
	incq	%r14
	movl	$32, %edi
	movl	%ebp, %esi
	callq	urcl_out@PLT
	movq	%r14, %rcx
.LBB0_240:                              # %inst_287
                                        #   in Loop: Header=BB0_52 Depth=6
	movq	%rcx, %r14
	incq	%r14
	movl	$33, %edi
	callq	urcl_in@PLT
	movl	%eax, %r10d
	movq	%r14, %rcx
.LBB0_241:                              # %inst_288
                                        #   in Loop: Header=BB0_52 Depth=6
	movl	%r10d, %r12d
	movl	%r13d, %eax
	incq	%rcx
	decl	%eax
	movl	%eax, %r13d
.LBB0_242:                              # %inst_289
                                        #   in Loop: Header=BB0_52 Depth=6
	movq	%rcx, %r14
	movl	%r13d, %ebp
	incq	%r14
	movl	$32, %edi
	movl	%ebp, %esi
	callq	urcl_out@PLT
	movq	%r14, %rcx
.LBB0_243:                              # %inst_290
                                        #   in Loop: Header=BB0_52 Depth=6
	movl	%r13d, %ebp
	movq	%rcx, %r14
	incq	%r14
	movl	$33, %edi
	callq	urcl_in@PLT
                                        # kill: def $ax killed $ax def $eax
	movl	%eax, 24(%rsp)                  # 4-byte Spill
	movq	%r14, %rcx
	movl	%r12d, %r10d
.LBB0_244:                              # %inst_291
                                        #   in Loop: Header=BB0_52 Depth=6
	movl	24(%rsp), %r13d                 # 4-byte Reload
                                        # kill: def $r13w killed $r13w killed $r13d def $r13d
	movl	%r10d, %eax
	incq	%rcx
	addl	%r13d, %eax
	movl	%eax, %r10d
                                        # kill: def $r13w killed $r13w killed $r13d def $r13d
	movl	%r13d, 24(%rsp)                 # 4-byte Spill
	movl	%ebp, %r13d
.LBB0_245:                              # %inst_292
                                        #   in Loop: Header=BB0_52 Depth=6
	movl	24(%rsp), %eax                  # 4-byte Reload
                                        # kill: def $ax killed $ax killed $eax
	movl	%r10d, %edx
	incq	%rcx
	decl	%edx
	movl	%edx, %r10d
                                        # kill: def $ax killed $ax def $eax
	movl	%eax, 24(%rsp)                  # 4-byte Spill
.LBB0_246:                              # %inst_293
                                        #   in Loop: Header=BB0_52 Depth=6
	movzwl	8(%rsp), %r12d                  # 2-byte Folded Reload
	movq	%rcx, %r14
	movl	24(%rsp), %eax                  # 4-byte Reload
	movl	%eax, %ebp
	movl	%r10d, %esi
	incq	%r14
	movl	$32, %edi
	callq	urcl_out@PLT
	movl	%ebp, %eax
	movl	%eax, 24(%rsp)                  # 4-byte Spill
	movq	%r14, %rcx
.LBB0_247:                              # %inst_294
                                        #   in Loop: Header=BB0_52 Depth=6
	movq	%rcx, %r14
	movl	20(%rsp), %ebp                  # 4-byte Reload
                                        # kill: def $bp killed $bp killed $ebp def $ebp
	movl	24(%rsp), %eax                  # 4-byte Reload
	movl	%eax, %r15d
	incq	%r14
	movl	$33, %edi
	movl	%ebp, %esi
	callq	urcl_out@PLT
	movl	%r15d, %eax
	movl	%eax, 24(%rsp)                  # 4-byte Spill
                                        # kill: def $bp killed $bp killed $ebp def $ebp
	movq	%r14, %rcx
.LBB0_248:                              # %inst_295
                                        #   in Loop: Header=BB0_52 Depth=6
	movw	%r12w, 8(%rsp)                  # 2-byte Spill
	movq	%rcx, %r14
                                        # kill: def $bp killed $bp killed $ebp def $ebp
	movl	24(%rsp), %eax                  # 4-byte Reload
	movl	%eax, %r15d
	incq	%r14
	movl	$32, %edi
	movl	%ebp, %esi
	callq	urcl_out@PLT
	movl	%r15d, %eax
	movl	%eax, 24(%rsp)                  # 4-byte Spill
                                        # kill: def $bp killed $bp killed $ebp def $ebp
	movl	%ebp, 20(%rsp)                  # 4-byte Spill
	movq	%r14, %rcx
.LBB0_249:                              # %inst_296
                                        #   in Loop: Header=BB0_52 Depth=6
	movq	%rcx, %r14
	movl	24(%rsp), %eax                  # 4-byte Reload
	movl	%eax, %ebp
	incq	%r14
	movl	$33, %edi
	movl	$46, %esi
	callq	urcl_out@PLT
	movl	%ebp, %eax
	movl	%eax, 24(%rsp)                  # 4-byte Spill
	movq	%r14, %rcx
.LBB0_250:                              # %inst_297
                                        #   in Loop: Header=BB0_52 Depth=6
	movzwl	8(%rsp), %esi                   # 2-byte Folded Reload
	movl	20(%rsp), %eax                  # 4-byte Reload
                                        # kill: def $ax killed $ax killed $eax def $eax
	movl	24(%rsp), %edx                  # 4-byte Reload
                                        # kill: def $dx killed $dx killed $edx
	incq	%rcx
	incl	%eax
                                        # kill: def $dx killed $dx def $edx
	movl	%edx, 24(%rsp)                  # 4-byte Spill
	movl	%eax, %ebp
.LBB0_251:                              # %inst_298
                                        #   in Loop: Header=BB0_52 Depth=6
	movw	%si, 8(%rsp)                    # 2-byte Spill
	movq	%rcx, %r14
                                        # kill: def $bp killed $bp killed $ebp def $ebp
	movl	24(%rsp), %eax                  # 4-byte Reload
	movl	%eax, %r15d
	incq	%r14
	movl	$32, %edi
	movl	%ebp, %esi
	callq	urcl_out@PLT
	movl	%r15d, %eax
	movl	%eax, 24(%rsp)                  # 4-byte Spill
                                        # kill: def $bp killed $bp killed $ebp def $ebp
	movl	%ebp, 20(%rsp)                  # 4-byte Spill
	movq	%r14, %rcx
.LBB0_252:                              # %inst_299
                                        #   in Loop: Header=BB0_52 Depth=6
	movq	%rcx, %r14
	movl	24(%rsp), %eax                  # 4-byte Reload
	movl	%eax, %ebp
	incq	%r14
	movl	$33, %edi
	xorl	%esi, %esi
	callq	urcl_out@PLT
	movl	%ebp, %eax
	movl	%eax, 24(%rsp)                  # 4-byte Spill
	movq	%r14, %rcx
.LBB0_253:                              # %inst_300
                                        #   in Loop: Header=BB0_52 Depth=6
	movzwl	8(%rsp), %esi                   # 2-byte Folded Reload
	movl	20(%rsp), %eax                  # 4-byte Reload
                                        # kill: def $ax killed $ax killed $eax def $eax
	movl	24(%rsp), %edx                  # 4-byte Reload
                                        # kill: def $dx killed $dx killed $edx
	incq	%rcx
	incl	%eax
                                        # kill: def $dx killed $dx def $edx
	movl	%edx, 24(%rsp)                  # 4-byte Spill
	movl	%eax, %ebp
.LBB0_254:                              # %inst_301
                                        #   in Loop: Header=BB0_52 Depth=6
	movw	%si, 8(%rsp)                    # 2-byte Spill
	movq	%rcx, %r14
                                        # kill: def $bp killed $bp killed $ebp def $ebp
	movl	24(%rsp), %eax                  # 4-byte Reload
	movl	%eax, %r15d
	incq	%r14
	movl	$32, %edi
	movl	%ebp, %esi
	callq	urcl_out@PLT
	movl	%r15d, %eax
	movl	%eax, 24(%rsp)                  # 4-byte Spill
                                        # kill: def $bp killed $bp killed $ebp def $ebp
	movl	%ebp, 20(%rsp)                  # 4-byte Spill
	movq	%r14, %rcx
.LBB0_255:                              # %inst_302
                                        #   in Loop: Header=BB0_52 Depth=6
	movq	%rcx, %r14
	movl	24(%rsp), %eax                  # 4-byte Reload
	movl	%eax, %ebp
	incq	%r14
	movl	$33, %edi
	movl	$5, %esi
	callq	urcl_out@PLT
	movl	%ebp, %eax
	movl	%eax, 24(%rsp)                  # 4-byte Spill
	movq	%r14, %rcx
.LBB0_256:                              # %inst_303
                                        #   in Loop: Header=BB0_52 Depth=6
	movzwl	8(%rsp), %r12d                  # 2-byte Folded Reload
	movl	20(%rsp), %eax                  # 4-byte Reload
                                        # kill: def $ax killed $ax killed $eax def $eax
	movl	24(%rsp), %edx                  # 4-byte Reload
                                        # kill: def $dx killed $dx killed $edx
	incq	%rcx
	incl	%eax
                                        # kill: def $dx killed $dx def $edx
	movl	%edx, 24(%rsp)                  # 4-byte Spill
	movl	%eax, %ebp
.LBB0_257:                              # %inst_304
                                        #   in Loop: Header=BB0_52 Depth=6
	movq	%rcx, %r14
                                        # kill: def $bp killed $bp killed $ebp def $ebp
	movl	24(%rsp), %eax                  # 4-byte Reload
	movl	%eax, %r15d
	incq	%r14
	movl	$32, %edi
	movl	%ebp, %esi
	callq	urcl_out@PLT
	movl	%r15d, %eax
	movl	%eax, 24(%rsp)                  # 4-byte Spill
	movl	%ebp, %eax
	movq	%r14, %rcx
.LBB0_258:                              # %inst_305
                                        #   in Loop: Header=BB0_52 Depth=6
                                        # kill: def $ax killed $ax killed $eax def $eax
	movl	24(%rsp), %edx                  # 4-byte Reload
                                        # kill: def $dx killed $dx killed $edx
	incq	%rcx
	incl	%eax
                                        # kill: def $dx killed $dx def $edx
	movl	%edx, 24(%rsp)                  # 4-byte Spill
	movl	%eax, %ebp
.LBB0_259:                              # %inst_306
                                        #   in Loop: Header=BB0_52 Depth=6
	movq	%rcx, %r14
                                        # kill: def $bp killed $bp killed $ebp def $ebp
	movl	24(%rsp), %eax                  # 4-byte Reload
	movl	%eax, %r15d
	incq	%r14
	movl	$33, %edi
	movl	%ebp, %esi
	callq	urcl_out@PLT
	movl	%r15d, %eax
	movl	%eax, 24(%rsp)                  # 4-byte Spill
                                        # kill: def $bp killed $bp killed $ebp def $ebp
	movq	%r14, %rcx
.LBB0_260:                              # %inst_307
                                        #   in Loop: Header=BB0_52 Depth=6
	movw	%r12w, 8(%rsp)                  # 2-byte Spill
	movq	%rcx, %r14
                                        # kill: def $bp killed $bp killed $ebp def $ebp
	movl	24(%rsp), %eax                  # 4-byte Reload
	movl	%eax, %r15d
	incq	%r14
	movl	$32, %edi
	movl	%ebp, %esi
	callq	urcl_out@PLT
	movl	%r15d, %eax
	movl	%eax, 24(%rsp)                  # 4-byte Spill
                                        # kill: def $bp killed $bp killed $ebp def $ebp
	movl	%ebp, 20(%rsp)                  # 4-byte Spill
	movq	%r14, %rcx
.LBB0_261:                              # %inst_308
                                        #   in Loop: Header=BB0_52 Depth=6
	movl	24(%rsp), %eax                  # 4-byte Reload
                                        # kill: def $ax killed $ax killed $eax
	incq	%rcx
	movzwl	240(%rsp), %edx
	movl	%edx, %r10d
                                        # kill: def $ax killed $ax def $eax
	movl	%eax, 24(%rsp)                  # 4-byte Spill
.LBB0_262:                              # %inst_309
                                        #   in Loop: Header=BB0_52 Depth=6
	movq	%rcx, %r14
	movl	24(%rsp), %eax                  # 4-byte Reload
	movl	%eax, %ebp
	movl	%r10d, %esi
	incq	%r14
	movl	$33, %edi
	callq	urcl_out@PLT
	movl	%ebp, %eax
	movl	%eax, 24(%rsp)                  # 4-byte Spill
	movq	%r14, %rcx
.LBB0_263:                              # %inst_310
                                        #   in Loop: Header=BB0_52 Depth=6
	movzwl	8(%rsp), %esi                   # 2-byte Folded Reload
	movl	20(%rsp), %eax                  # 4-byte Reload
                                        # kill: def $ax killed $ax killed $eax def $eax
	movl	24(%rsp), %edx                  # 4-byte Reload
                                        # kill: def $dx killed $dx killed $edx
	incq	%rcx
	incl	%eax
                                        # kill: def $dx killed $dx def $edx
	movl	%edx, 24(%rsp)                  # 4-byte Spill
	movl	%eax, %ebp
.LBB0_264:                              # %inst_311
                                        #   in Loop: Header=BB0_52 Depth=6
	movw	%si, 8(%rsp)                    # 2-byte Spill
	movq	%rcx, %r14
                                        # kill: def $bp killed $bp killed $ebp def $ebp
	movl	24(%rsp), %eax                  # 4-byte Reload
	movl	%eax, %r15d
	incq	%r14
	movl	$32, %edi
	movl	%ebp, %esi
	callq	urcl_out@PLT
	movl	%r15d, %eax
	movl	%eax, 24(%rsp)                  # 4-byte Spill
                                        # kill: def $bp killed $bp killed $ebp def $ebp
	movl	%ebp, 20(%rsp)                  # 4-byte Spill
	movq	%r14, %rcx
.LBB0_265:                              # %inst_312
                                        #   in Loop: Header=BB0_52 Depth=6
	movq	%rcx, %r14
	movl	24(%rsp), %eax                  # 4-byte Reload
	movl	%eax, %ebp
	incq	%r14
	movl	$33, %edi
	xorl	%esi, %esi
	callq	urcl_out@PLT
	movl	%ebp, %eax
	movl	%eax, 24(%rsp)                  # 4-byte Spill
	movq	%r14, %rcx
.LBB0_266:                              # %inst_313
                                        #   in Loop: Header=BB0_52 Depth=6
	movzwl	8(%rsp), %esi                   # 2-byte Folded Reload
	movl	20(%rsp), %eax                  # 4-byte Reload
                                        # kill: def $ax killed $ax killed $eax def $eax
	movl	24(%rsp), %edx                  # 4-byte Reload
                                        # kill: def $dx killed $dx killed $edx
	incq	%rcx
	incl	%eax
                                        # kill: def $dx killed $dx def $edx
	movl	%edx, 24(%rsp)                  # 4-byte Spill
	movl	%eax, %ebp
.LBB0_267:                              # %inst_314
                                        #   in Loop: Header=BB0_52 Depth=6
	movw	%si, 8(%rsp)                    # 2-byte Spill
	movq	%rcx, %r14
                                        # kill: def $bp killed $bp killed $ebp def $ebp
	movl	24(%rsp), %eax                  # 4-byte Reload
	movl	%eax, %r15d
	incq	%r14
	movl	$32, %edi
	movl	%ebp, %esi
	callq	urcl_out@PLT
	movl	%r15d, %eax
	movl	%eax, 24(%rsp)                  # 4-byte Spill
                                        # kill: def $bp killed $bp killed $ebp def $ebp
	movl	%ebp, 20(%rsp)                  # 4-byte Spill
	movq	%r14, %rcx
.LBB0_268:                              # %inst_315
                                        #   in Loop: Header=BB0_52 Depth=6
	movq	%rcx, %r14
	movl	24(%rsp), %eax                  # 4-byte Reload
	movl	%eax, %ebp
	incq	%r14
	movl	$33, %edi
	movl	$16, %esi
	callq	urcl_out@PLT
	movl	%ebp, %eax
	movl	%eax, 24(%rsp)                  # 4-byte Spill
	movq	%r14, %rcx
.LBB0_269:                              # %inst_316
                                        #   in Loop: Header=BB0_52 Depth=6
	movl	20(%rsp), %eax                  # 4-byte Reload
                                        # kill: def $ax killed $ax killed $eax def $eax
	movl	24(%rsp), %edx                  # 4-byte Reload
                                        # kill: def $dx killed $dx killed $edx
	incq	%rcx
	incl	%eax
                                        # kill: def $dx killed $dx def $edx
	movl	%edx, 24(%rsp)                  # 4-byte Spill
	movl	%eax, %ebp
.LBB0_270:                              # %inst_317
                                        #   in Loop: Header=BB0_52 Depth=6
	movq	%rcx, %r14
                                        # kill: def $bp killed $bp killed $ebp def $ebp
	movl	24(%rsp), %eax                  # 4-byte Reload
	movl	%eax, %r15d
	incq	%r14
	movl	$32, %edi
	movl	%ebp, %esi
	callq	urcl_out@PLT
	movl	%r15d, %eax
	movl	%eax, 24(%rsp)                  # 4-byte Spill
                                        # kill: def $bp killed $bp killed $ebp def $ebp
	movl	%ebp, 20(%rsp)                  # 4-byte Spill
	movq	%r14, %rcx
.LBB0_271:                              # %inst_318
                                        #   in Loop: Header=BB0_52 Depth=6
	movl	24(%rsp), %eax                  # 4-byte Reload
                                        # kill: def $ax killed $ax killed $eax
	incq	%rcx
	movzwl	238(%rsp), %edx
	movl	%edx, %r10d
                                        # kill: def $ax killed $ax def $eax
	movl	%eax, 24(%rsp)                  # 4-byte Spill
.LBB0_272:                              # %inst_319
                                        #   in Loop: Header=BB0_52 Depth=6
	movq	%rcx, %r14
	movl	24(%rsp), %eax                  # 4-byte Reload
	movl	%eax, %r15d
	movl	%r10d, %ebp
	incq	%r14
	movl	$33, %edi
	movl	%ebp, %esi
	callq	urcl_out@PLT
	movl	%ebp, %r10d
	movl	%r15d, %eax
	movl	%eax, 24(%rsp)                  # 4-byte Spill
	movq	%r14, %rcx
.LBB0_273:                              # %inst_320
                                        #   in Loop: Header=BB0_52 Depth=6
	movl	%r10d, %r12d
	movl	20(%rsp), %eax                  # 4-byte Reload
                                        # kill: def $ax killed $ax killed $eax def $eax
	movl	24(%rsp), %edx                  # 4-byte Reload
                                        # kill: def $dx killed $dx killed $edx
	incq	%rcx
	incl	%eax
                                        # kill: def $dx killed $dx def $edx
	movl	%edx, 24(%rsp)                  # 4-byte Spill
	movl	%eax, %ebp
.LBB0_274:                              # %inst_321
                                        #   in Loop: Header=BB0_52 Depth=6
	movq	%rcx, %r14
                                        # kill: def $bp killed $bp killed $ebp def $ebp
	movl	24(%rsp), %eax                  # 4-byte Reload
	movl	%eax, %r15d
	incq	%r14
	movl	$32, %edi
	movl	%ebp, %esi
	callq	urcl_out@PLT
	movl	%r15d, %eax
	movl	%eax, 24(%rsp)                  # 4-byte Spill
                                        # kill: def $bp killed $bp killed $ebp def $ebp
	movl	%ebp, 20(%rsp)                  # 4-byte Spill
	movq	%r14, %rcx
.LBB0_275:                              # %inst_322
                                        #   in Loop: Header=BB0_52 Depth=6
	movq	%rcx, %r14
	movl	24(%rsp), %eax                  # 4-byte Reload
	movl	%eax, %ebp
	incq	%r14
	movl	$33, %edi
	xorl	%esi, %esi
	callq	urcl_out@PLT
	movl	%ebp, %eax
	movl	%eax, 24(%rsp)                  # 4-byte Spill
	movq	%r14, %rcx
	movl	%r12d, %r10d
.LBB0_276:                              # %inst_323
                                        #   in Loop: Header=BB0_52 Depth=6
	movq	%rcx, %r14
	movzwl	8(%rsp), %eax                   # 2-byte Folded Reload
                                        # kill: def $ax killed $ax def $rax
	movl	24(%rsp), %ecx                  # 4-byte Reload
                                        # kill: def $cx killed $cx killed $ecx
	leal	1(%rax), %edx
	movzwl	%ax, %eax
	movzwl	68(%rsp,%rax,2), %edi
	jmp	.LBB0_1522
.LBB0_277:                              #   in Loop: Header=BB0_52 Depth=6
	movl	%r10d, %r12d
	jmp	.LBB0_242
.LBB0_278:                              #   in Loop: Header=BB0_52 Depth=6
	movl	%r10d, %r12d
	jmp	.LBB0_243
.LBB0_279:                              #   in Loop: Header=BB0_52 Depth=6
	movl	%r13d, %ebp
	jmp	.LBB0_244
.LBB0_280:                              #   in Loop: Header=BB0_52 Depth=6
	movzwl	8(%rsp), %r12d                  # 2-byte Folded Reload
	jmp	.LBB0_247
.LBB0_281:                              #   in Loop: Header=BB0_52 Depth=6
	movzwl	8(%rsp), %r12d                  # 2-byte Folded Reload
	movl	20(%rsp), %ebp                  # 4-byte Reload
	jmp	.LBB0_248
.LBB0_282:                              #   in Loop: Header=BB0_52 Depth=6
	movzwl	8(%rsp), %esi                   # 2-byte Folded Reload
	movl	20(%rsp), %ebp                  # 4-byte Reload
	jmp	.LBB0_251
.LBB0_283:                              #   in Loop: Header=BB0_52 Depth=6
	movzwl	8(%rsp), %esi                   # 2-byte Folded Reload
	movl	20(%rsp), %ebp                  # 4-byte Reload
	jmp	.LBB0_254
.LBB0_284:                              #   in Loop: Header=BB0_52 Depth=6
	movzwl	8(%rsp), %r12d                  # 2-byte Folded Reload
	movl	20(%rsp), %ebp                  # 4-byte Reload
	jmp	.LBB0_257
.LBB0_285:                              #   in Loop: Header=BB0_52 Depth=6
	movzwl	8(%rsp), %r12d                  # 2-byte Folded Reload
	movl	20(%rsp), %eax                  # 4-byte Reload
	jmp	.LBB0_258
.LBB0_286:                              #   in Loop: Header=BB0_52 Depth=6
	movzwl	8(%rsp), %r12d                  # 2-byte Folded Reload
	movl	20(%rsp), %ebp                  # 4-byte Reload
	jmp	.LBB0_259
.LBB0_287:                              #   in Loop: Header=BB0_52 Depth=6
	movzwl	8(%rsp), %r12d                  # 2-byte Folded Reload
	movl	20(%rsp), %ebp                  # 4-byte Reload
	jmp	.LBB0_260
.LBB0_288:                              #   in Loop: Header=BB0_52 Depth=6
	movzwl	8(%rsp), %esi                   # 2-byte Folded Reload
	movl	20(%rsp), %ebp                  # 4-byte Reload
	jmp	.LBB0_264
.LBB0_289:                              #   in Loop: Header=BB0_52 Depth=6
	movzwl	8(%rsp), %esi                   # 2-byte Folded Reload
	movl	20(%rsp), %ebp                  # 4-byte Reload
	jmp	.LBB0_267
.LBB0_290:                              #   in Loop: Header=BB0_52 Depth=6
	movl	20(%rsp), %ebp                  # 4-byte Reload
	jmp	.LBB0_270
.LBB0_291:                              #   in Loop: Header=BB0_52 Depth=6
	movl	%r10d, %r12d
	movl	20(%rsp), %ebp                  # 4-byte Reload
	jmp	.LBB0_274
.LBB0_292:                              #   in Loop: Header=BB0_52 Depth=6
	movl	%r10d, %r12d
	jmp	.LBB0_275
.LBB0_293:                              # %inst_324
                                        #   in Loop: Header=BB0_52 Depth=6
	addq	$2, %r14
	movzwl	8(%rsp), %eax                   # 2-byte Folded Reload
                                        # kill: def $ax killed $ax def $eax
	decl	%eax
	movzwl	%ax, %edx
	movl	16(%rsp), %esi                  # 4-byte Reload
	movw	%si, 68(%rsp,%rdx,2)
                                        # kill: def $ax killed $ax killed $eax
	movw	%ax, 8(%rsp)                    # 2-byte Spill
	movq	%r14, %rcx
.LBB0_294:                              # %inst_325
                                        #   in Loop: Header=BB0_52 Depth=6
	movzwl	8(%rsp), %eax                   # 2-byte Folded Reload
                                        # kill: def $ax killed $ax def $eax
	incq	%rcx
	decl	%eax
	movzwl	%ax, %edx
	movw	%r13w, 68(%rsp,%rdx,2)
                                        # kill: def $ax killed $ax killed $eax
	movw	%ax, 8(%rsp)                    # 2-byte Spill
.LBB0_295:                              # %inst_326
                                        #   in Loop: Header=BB0_52 Depth=6
	incq	%rcx
	movl	%r13d, %eax
	addl	$87, %eax
	movl	%eax, %r13d
.LBB0_296:                              # %inst_327
                                        #   in Loop: Header=BB0_52 Depth=6
	movzwl	8(%rsp), %eax                   # 2-byte Folded Reload
                                        # kill: def $ax killed $ax def $eax
	incq	%rcx
	decl	%eax
	movzwl	%ax, %edx
	movw	$330, 68(%rsp,%rdx,2)           # imm = 0x14A
                                        # kill: def $ax killed $ax killed $eax
	movw	%ax, 8(%rsp)                    # 2-byte Spill
.LBB0_297:                              # %inst_328
                                        #   in Loop: Header=BB0_52 Depth=6
	movzwl	8(%rsp), %eax                   # 2-byte Folded Reload
                                        # kill: def $ax killed $ax def $eax
	movl	%r13d, %edx
	incq	%rcx
	decl	%eax
	movzwl	%ax, %esi
	movw	%r13w, 68(%rsp,%rsi,2)
                                        # kill: def $ax killed $ax killed $eax
	movw	%ax, 8(%rsp)                    # 2-byte Spill
.LBB0_298:                              # %inst_329
                                        #   in Loop: Header=BB0_52 Depth=6
	movq	%rcx, %r14
	incq	%r14
.LBB0_299:                              # %inst_769
                                        #   in Loop: Header=BB0_52 Depth=6
	incq	%r14
	movzwl	176(%rsp), %eax
	movl	%eax, %r10d
.LBB0_300:                              # %inst_770
                                        #   in Loop: Header=BB0_52 Depth=6
	movzwl	8(%rsp), %eax                   # 2-byte Folded Reload
	movl	%eax, %r12d
	incq	%r14
	movzwl	%ax, %eax
	movzwl	68(%rsp,%rax,2), %eax
.LBB0_301:                              # %inst_771
                                        #   in Loop: Header=BB0_52 Depth=6
	incq	%r14
	movzwl	%ax, %eax
	movzwl	68(%rsp,%rax,2), %ebp
.LBB0_302:                              # %inst_772
                                        #   in Loop: Header=BB0_52 Depth=6
	incq	%r14
	movzwl	%bp, %eax
	movzwl	68(%rsp,%rax,2), %eax
.LBB0_303:                              # %inst_773
                                        #   in Loop: Header=BB0_52 Depth=6
	incq	%r14
	decl	%r12d
	movzwl	%r12w, %ecx
	movw	$0, 68(%rsp,%rcx,2)
.LBB0_304:                              # %inst_774
                                        #   in Loop: Header=BB0_52 Depth=6
	incq	%r14
	testw	%ax, %ax
	je	.LBB0_308
.LBB0_305:                              # %inst_775
                                        #   in Loop: Header=BB0_52 Depth=6
	incq	%r14
	incl	%r12d
.LBB0_306:                              # %inst_776
                                        #   in Loop: Header=BB0_52 Depth=6
	incq	%r14
	cmpw	$46, %ax
	jne	.LBB0_815
.LBB0_307:                              # %inst_779
                                        #   in Loop: Header=BB0_52 Depth=6
	incq	%r14
	movzwl	176(%rsp), %r9d
	jmp	.LBB0_821
.LBB0_308:                              #   in Loop: Header=BB0_52 Depth=6
	xorl	%ebx, %ebx
	movl	20(%rsp), %eax                  # 4-byte Reload
	jmp	.LBB0_1650
.LBB0_309:                              # %inst_330
                                        #   in Loop: Header=BB0_52 Depth=6
	addq	$2, %r14
	movw	$104, %bx
	movq	%r14, %rcx
	jmp	.LBB0_1403
.LBB0_310:                              #   in Loop: Header=BB0_52 Depth=6
	movl	32(%rsp), %eax                  # 4-byte Reload
	jmp	.LBB0_1404
.LBB0_311:                              #   in Loop: Header=BB0_52 Depth=6
	movl	32(%rsp), %eax                  # 4-byte Reload
	jmp	.LBB0_1405
.LBB0_312:                              #   in Loop: Header=BB0_52 Depth=6
	movl	32(%rsp), %eax                  # 4-byte Reload
	jmp	.LBB0_1407
.LBB0_313:                              # %inst_344
                                        #   in Loop: Header=BB0_52 Depth=6
	addq	$2, %r14
	movzwl	8(%rsp), %edx                   # 2-byte Folded Reload
	movzwl	%dx, %eax
                                        # kill: def $dx killed $dx def $rdx
	incl	%edx
	movzwl	68(%rsp,%rax,2), %eax
	movl	%eax, %ebx
	movl	%edx, %eax
	movw	%dx, 8(%rsp)                    # 2-byte Spill
	movq	%r14, %rcx
.LBB0_314:                              # %inst_345
                                        #   in Loop: Header=BB0_52 Depth=6
	movl	%ebx, %eax
	incq	%rcx
	movzwl	274(%rsp), %edx
	movl	%edx, %esi
	jmp	.LBB0_316
.LBB0_315:                              #   in Loop: Header=BB0_52 Depth=6
	movl	16(%rsp), %esi                  # 4-byte Reload
.LBB0_316:                              # %inst_346
                                        #   in Loop: Header=BB0_52 Depth=6
	movl	%esi, %eax
	movl	%ebx, %edx
	incq	%rcx
	movzwl	%bx, %edx
	movw	%si, 68(%rsp,%rdx,2)
	jmp	.LBB0_318
.LBB0_317:                              #   in Loop: Header=BB0_52 Depth=6
	movl	16(%rsp), %esi                  # 4-byte Reload
.LBB0_318:                              # %inst_347
                                        #   in Loop: Header=BB0_52 Depth=6
	movl	%esi, %eax
	incq	%rcx
	movl	%esi, %ebx
.LBB0_319:                              # %inst_348
                                        #   in Loop: Header=BB0_52 Depth=6
	movl	%r10d, %r12d
	movl	%ebx, %eax
	incq	%rcx
	movzwl	238(%rsp), %edx
	movl	%edx, %r13d
.LBB0_320:                              # %inst_349
                                        #   in Loop: Header=BB0_52 Depth=6
	movq	%rcx, %r14
	movl	%r13d, %ebp
                                        # kill: def $bx killed $bx killed $ebx
	incq	%r14
	movl	$32, %edi
	movl	%ebp, %esi
	callq	urcl_out@PLT
                                        # kill: def $bx killed $bx def $ebx
	movq	%r14, %rcx
.LBB0_321:                              # %inst_350
                                        #   in Loop: Header=BB0_52 Depth=6
	movq	%rcx, %r14
                                        # kill: def $bx killed $bx killed $ebx
	incq	%r14
	movl	$33, %edi
	callq	urcl_in@PLT
                                        # kill: def $bx killed $bx def $ebx
	movl	%eax, %r15d
	movq	%r14, %rcx
	movl	%r12d, %r10d
.LBB0_322:                              # %inst_351
                                        #   in Loop: Header=BB0_52 Depth=6
	movl	%r15d, %eax
	movl	%ebx, %edx
	incq	%rcx
	movzwl	%bx, %esi
	movw	%r15w, 68(%rsp,%rsi,2)
.LBB0_323:                              # %inst_352
                                        #   in Loop: Header=BB0_52 Depth=6
	movl	%r13d, %eax
	movl	%ebx, %edx
	incq	%rcx
	addl	$-3, %eax
	movl	%eax, %r13d
.LBB0_324:                              # %inst_353
                                        #   in Loop: Header=BB0_52 Depth=6
	movl	%r13d, %eax
	movl	%ebx, %edx
	incq	%rcx
	leal	1(%rdx), %esi
	movzwl	%si, %esi
	movw	%r13w, 68(%rsp,%rsi,2)
.LBB0_325:                              # %inst_354
                                        #   in Loop: Header=BB0_52 Depth=6
	movl	%r10d, %r12d
	movl	%r13d, %eax
	movl	%ebx, %edx
	incq	%rcx
	incl	%eax
	movl	%eax, %r13d
.LBB0_326:                              # %inst_355
                                        #   in Loop: Header=BB0_52 Depth=6
	movq	%rcx, %r14
	movl	%r13d, %ebp
                                        # kill: def $bx killed $bx killed $ebx
	incq	%r14
	movl	$32, %edi
	movl	%ebp, %esi
	callq	urcl_out@PLT
                                        # kill: def $bx killed $bx def $ebx
	movq	%r14, %rcx
.LBB0_327:                              # %inst_356
                                        #   in Loop: Header=BB0_52 Depth=6
	movq	%rcx, %r14
                                        # kill: def $bx killed $bx killed $ebx
	incq	%r14
	movl	$33, %edi
	callq	urcl_in@PLT
                                        # kill: def $bx killed $bx def $ebx
                                        # kill: def $ax killed $ax def $eax
	movq	%r14, %rcx
	movl	%r12d, %r10d
.LBB0_328:                              # %inst_357
                                        #   in Loop: Header=BB0_52 Depth=6
                                        # kill: def $ax killed $ax killed $eax
	movl	%ebx, %edx
	incq	%rcx
	movzwl	%ax, %eax
	shrl	$2, %eax
                                        # kill: def $ax killed $ax killed $eax def $eax
.LBB0_329:                              # %inst_358
                                        #   in Loop: Header=BB0_52 Depth=6
                                        # kill: def $ax killed $ax killed $eax
	movl	%ebx, %edx
	incq	%rcx
	leal	3(%rdx), %esi
	movzwl	%si, %esi
	movw	%ax, 68(%rsp,%rsi,2)
.LBB0_330:                              # %inst_359
                                        #   in Loop: Header=BB0_52 Depth=6
	movl	%r10d, %r12d
	movl	%r13d, %eax
	movl	%ebx, %edx
	incq	%rcx
	incl	%eax
	movl	%eax, %r13d
.LBB0_331:                              # %inst_360
                                        #   in Loop: Header=BB0_52 Depth=6
	movq	%rcx, %r14
	movl	%r13d, %ebp
                                        # kill: def $bx killed $bx killed $ebx
	incq	%r14
	movl	$32, %edi
	movl	%ebp, %esi
	callq	urcl_out@PLT
                                        # kill: def $bx killed $bx def $ebx
	movq	%r14, %rcx
.LBB0_332:                              # %inst_361
                                        #   in Loop: Header=BB0_52 Depth=6
	movq	%rcx, %r14
                                        # kill: def $bx killed $bx killed $ebx
	incq	%r14
	movl	$33, %edi
	callq	urcl_in@PLT
                                        # kill: def $bx killed $bx def $ebx
                                        # kill: def $ax killed $ax def $eax
	movq	%r14, %rcx
	movl	%r12d, %r10d
.LBB0_333:                              # %inst_362
                                        #   in Loop: Header=BB0_52 Depth=6
	movq	%rcx, %r14
                                        # kill: def $ax killed $ax killed $eax def $eax
	movl	%r15d, %ecx
	movl	%ebx, %edx
	incq	%r14
	addl	%eax, %ecx
	movl	%ecx, %eax
.LBB0_334:                              # %inst_363
                                        #   in Loop: Header=BB0_52 Depth=6
                                        # kill: def $ax killed $ax killed $eax def $eax
	movl	%ebx, %ecx
	incq	%r14
	decl	%eax
                                        # kill: def $ax killed $ax killed $eax def $eax
.LBB0_335:                              # %inst_364
                                        #   in Loop: Header=BB0_52 Depth=6
	movl	%eax, 32(%rsp)                  # 4-byte Spill
                                        # kill: def $ax killed $ax killed $eax
	movl	%ebx, %ecx
	incq	%r14
	leal	2(%rcx), %edx
	movzwl	%dx, %edx
	movw	%ax, 68(%rsp,%rdx,2)
.LBB0_336:                              # %inst_365
                                        #   in Loop: Header=BB0_52 Depth=6
	movzwl	8(%rsp), %eax                   # 2-byte Folded Reload
                                        # kill: def $ax killed $ax def $rax
	movl	%ebx, %ecx
	incq	%r14
	leal	1(%rax), %edx
	movzwl	%ax, %eax
	movzwl	68(%rsp,%rax,2), %eax
                                        # kill: def $ax killed $ax def $eax
	movl	%eax, 16(%rsp)                  # 4-byte Spill
	movl	%edx, %eax
	movw	%dx, 8(%rsp)                    # 2-byte Spill
.LBB0_337:                              # %inst_366
                                        #   in Loop: Header=BB0_52 Depth=6
	movzwl	8(%rsp), %eax                   # 2-byte Folded Reload
                                        # kill: def $ax killed $ax def $rax
	movl	%ebx, %ecx
	leal	1(%rax), %edx
	movzwl	%ax, %eax
	movzwl	68(%rsp,%rax,2), %edi
	jmp	.LBB0_1523
.LBB0_338:                              #   in Loop: Header=BB0_52 Depth=6
	movl	%r10d, %r12d
	jmp	.LBB0_320
.LBB0_339:                              #   in Loop: Header=BB0_52 Depth=6
	movl	%r10d, %r12d
	jmp	.LBB0_321
.LBB0_340:                              #   in Loop: Header=BB0_52 Depth=6
	movl	16(%rsp), %r15d                 # 4-byte Reload
	jmp	.LBB0_322
.LBB0_341:                              #   in Loop: Header=BB0_52 Depth=6
	movl	16(%rsp), %r15d                 # 4-byte Reload
	jmp	.LBB0_323
.LBB0_342:                              #   in Loop: Header=BB0_52 Depth=6
	movl	16(%rsp), %r15d                 # 4-byte Reload
	jmp	.LBB0_324
.LBB0_343:                              #   in Loop: Header=BB0_52 Depth=6
	movl	16(%rsp), %r15d                 # 4-byte Reload
	jmp	.LBB0_325
.LBB0_344:                              #   in Loop: Header=BB0_52 Depth=6
	movl	%r10d, %r12d
	movl	16(%rsp), %r15d                 # 4-byte Reload
	jmp	.LBB0_326
.LBB0_345:                              #   in Loop: Header=BB0_52 Depth=6
	movl	%r10d, %r12d
	movl	16(%rsp), %r15d                 # 4-byte Reload
	jmp	.LBB0_327
.LBB0_346:                              #   in Loop: Header=BB0_52 Depth=6
	movl	16(%rsp), %r15d                 # 4-byte Reload
	movl	32(%rsp), %eax                  # 4-byte Reload
	jmp	.LBB0_328
.LBB0_347:                              #   in Loop: Header=BB0_52 Depth=6
	movl	16(%rsp), %r15d                 # 4-byte Reload
	movl	32(%rsp), %eax                  # 4-byte Reload
	jmp	.LBB0_329
.LBB0_348:                              #   in Loop: Header=BB0_52 Depth=6
	movl	16(%rsp), %r15d                 # 4-byte Reload
	jmp	.LBB0_330
.LBB0_349:                              #   in Loop: Header=BB0_52 Depth=6
	movl	%r10d, %r12d
	movl	16(%rsp), %r15d                 # 4-byte Reload
	jmp	.LBB0_331
.LBB0_350:                              #   in Loop: Header=BB0_52 Depth=6
	movl	%r10d, %r12d
	movl	16(%rsp), %r15d                 # 4-byte Reload
	jmp	.LBB0_332
.LBB0_351:                              #   in Loop: Header=BB0_52 Depth=6
	movl	16(%rsp), %r15d                 # 4-byte Reload
	movl	32(%rsp), %eax                  # 4-byte Reload
	jmp	.LBB0_333
.LBB0_352:                              #   in Loop: Header=BB0_52 Depth=6
	movq	%rcx, %r14
	movl	32(%rsp), %eax                  # 4-byte Reload
	jmp	.LBB0_334
.LBB0_353:                              #   in Loop: Header=BB0_52 Depth=6
	movq	%rcx, %r14
	movl	32(%rsp), %eax                  # 4-byte Reload
	jmp	.LBB0_335
.LBB0_354:                              #   in Loop: Header=BB0_52 Depth=6
	movq	%rcx, %r14
	jmp	.LBB0_336
.LBB0_355:                              #   in Loop: Header=BB0_52 Depth=6
	movq	%rcx, %r14
	jmp	.LBB0_337
.LBB0_356:                              #   in Loop: Header=BB0_52 Depth=6
	movq	%rcx, %r14
	jmp	.LBB0_1408
.LBB0_358:                              # %inst_369
                                        #   in Loop: Header=BB0_52 Depth=6
	addq	$2, %r14
	movl	%r13d, %eax
	addl	$87, %eax
	movl	%eax, %r13d
	jmp	.LBB0_360
.LBB0_359:                              #   in Loop: Header=BB0_52 Depth=6
	movq	%rcx, %r14
.LBB0_360:                              # %inst_370
                                        #   in Loop: Header=BB0_52 Depth=6
	movl	%r13d, %eax
	incq	%r14
	movzwl	%r13w, %eax
	movzwl	68(%rsp,%rax,2), %eax
	movl	%eax, %r13d
	jmp	.LBB0_362
.LBB0_361:                              #   in Loop: Header=BB0_52 Depth=6
	movq	%rcx, %r14
.LBB0_362:                              # %inst_371
                                        #   in Loop: Header=BB0_52 Depth=6
	movl	%r13d, %eax
	incq	%r14
	addl	$104, %eax
	movl	%eax, %r13d
	jmp	.LBB0_364
.LBB0_363:                              #   in Loop: Header=BB0_52 Depth=6
	movq	%rcx, %r14
.LBB0_364:                              # %inst_372
                                        #   in Loop: Header=BB0_52 Depth=6
	movl	%r13d, %eax
	incq	%r14
	movzwl	%r13w, %eax
	movzwl	68(%rsp,%rax,2), %eax
	movl	%eax, %ebx
	jmp	.LBB0_366
.LBB0_365:                              #   in Loop: Header=BB0_52 Depth=6
	movq	%rcx, %r14
.LBB0_366:                              # %inst_373
                                        #   in Loop: Header=BB0_52 Depth=6
	incq	%r14
	testw	%bx, %bx
	jne	.LBB0_368
	jmp	.LBB0_403
.LBB0_367:                              #   in Loop: Header=BB0_52 Depth=6
	movq	%rcx, %r14
.LBB0_368:                              # %inst_374
                                        #   in Loop: Header=BB0_52 Depth=6
                                        # kill: def $bx killed $bx killed $ebx def $ebx
	incq	%r14
	decl	%ebx
                                        # kill: def $bx killed $bx killed $ebx def $ebx
.LBB0_369:                              # %inst_375
                                        #   in Loop: Header=BB0_52 Depth=6
	movl	%ebx, %eax
	incq	%r14
	movzwl	%bx, %ecx
	movzwl	68(%rsp,%rcx,2), %ecx
	movl	%ecx, %eax
.LBB0_370:                              # %inst_376
                                        #   in Loop: Header=BB0_52 Depth=6
                                        # kill: def $ax killed $ax killed $eax def $eax
	movl	%ebx, %ecx
	incq	%r14
	andl	$32767, %eax                    # imm = 0x7FFF
                                        # kill: def $ax killed $ax killed $eax def $eax
.LBB0_371:                              # %inst_377
                                        #   in Loop: Header=BB0_52 Depth=6
	movl	%eax, 32(%rsp)                  # 4-byte Spill
                                        # kill: def $ax killed $ax killed $eax
	movl	%ebx, %ecx
	incq	%r14
	movzwl	%bx, %edx
	movw	%ax, 68(%rsp,%rdx,2)
.LBB0_372:                              # %inst_378
                                        #   in Loop: Header=BB0_52 Depth=6
                                        # kill: def $bx killed $bx killed $ebx def $ebx
	incq	%r14
	incl	%ebx
                                        # kill: def $bx killed $bx killed $ebx def $ebx
.LBB0_373:                              # %inst_379
                                        #   in Loop: Header=BB0_52 Depth=6
	movl	%r13d, %eax
	movl	%ebx, %ecx
	incq	%r14
	movzwl	%r13w, %eax
	movw	$0, 68(%rsp,%rax,2)
	jmp	.LBB0_1409
.LBB0_374:                              #   in Loop: Header=BB0_52 Depth=6
	movq	%rcx, %r14
	jmp	.LBB0_369
.LBB0_375:                              #   in Loop: Header=BB0_52 Depth=6
	movq	%rcx, %r14
	movl	32(%rsp), %eax                  # 4-byte Reload
	jmp	.LBB0_370
.LBB0_376:                              #   in Loop: Header=BB0_52 Depth=6
	movq	%rcx, %r14
	movl	32(%rsp), %eax                  # 4-byte Reload
	jmp	.LBB0_371
.LBB0_377:                              #   in Loop: Header=BB0_52 Depth=6
	movq	%rcx, %r14
	jmp	.LBB0_372
.LBB0_378:                              #   in Loop: Header=BB0_52 Depth=6
	movq	%rcx, %r14
	jmp	.LBB0_373
.LBB0_380:                              #   in Loop: Header=BB0_52 Depth=6
	movq	%rcx, %r14
	jmp	.LBB0_1249
.LBB0_381:                              #   in Loop: Header=BB0_52 Depth=6
	movq	%rcx, %r14
	jmp	.LBB0_1250
.LBB0_382:                              # %inst_383
                                        #   in Loop: Header=BB0_52 Depth=6
	movq	%r14, %rcx
	addq	$2, %rcx
	movl	%r13d, %eax
	addl	$87, %eax
	movl	%eax, %r13d
.LBB0_383:                              # %inst_384
                                        #   in Loop: Header=BB0_52 Depth=6
	movl	%r13d, %eax
	incq	%rcx
	movzwl	%r13w, %eax
	movzwl	68(%rsp,%rax,2), %eax
	movl	%eax, %r13d
.LBB0_384:                              # %inst_385
                                        #   in Loop: Header=BB0_52 Depth=6
	movl	%r13d, %eax
	incq	%rcx
	movzwl	8(%rsp), %esi                   # 2-byte Folded Reload
                                        # kill: def $si killed $si def $esi
	decl	%esi
	movzwl	%si, %edi
	movw	%r13w, 68(%rsp,%rdi,2)
	movl	%esi, %eax
	movw	%si, 8(%rsp)                    # 2-byte Spill
.LBB0_385:                              # %inst_386
                                        #   in Loop: Header=BB0_52 Depth=6
	movl	%r13d, %eax
	incq	%rcx
	addl	$104, %eax
	movl	%eax, %r13d
.LBB0_386:                              # %inst_387
                                        #   in Loop: Header=BB0_52 Depth=6
	movl	%r13d, %eax
	incq	%rcx
	movzwl	%r13w, %eax
	movzwl	68(%rsp,%rax,2), %eax
	movl	%eax, %ebx
.LBB0_387:                              # %inst_388
                                        #   in Loop: Header=BB0_52 Depth=6
	movl	%ebx, %eax
	incq	%rcx
	movw	$16, %r13w
.LBB0_388:                              # %inst_389
                                        #   in Loop: Header=BB0_52 Depth=6
	movzwl	8(%rsp), %eax                   # 2-byte Folded Reload
                                        # kill: def $ax killed $ax def $eax
	movl	%ebx, %esi
	incq	%rcx
	decl	%eax
	movzwl	%ax, %edi
	movw	%bx, 68(%rsp,%rdi,2)
	jmp	.LBB0_802
.LBB0_389:                              # %inst_391
                                        #   in Loop: Header=BB0_52 Depth=6
	movq	%r14, %rcx
	addq	$2, %rcx
	movzwl	8(%rsp), %edx                   # 2-byte Folded Reload
	movzwl	%dx, %eax
                                        # kill: def $dx killed $dx def $rdx
	incl	%edx
	movzwl	68(%rsp,%rax,2), %eax
	movl	%eax, %ebx
	movl	%edx, %eax
	movw	%dx, 8(%rsp)                    # 2-byte Spill
.LBB0_390:                              # %inst_392
                                        #   in Loop: Header=BB0_52 Depth=6
	movl	%ebx, %eax
	incq	%rcx
	movzwl	274(%rsp), %edx
	movl	%edx, %eax
	movl	%eax, 24(%rsp)                  # 4-byte Spill
.LBB0_391:                              # %inst_393
                                        #   in Loop: Header=BB0_52 Depth=6
	movl	24(%rsp), %eax                  # 4-byte Reload
                                        # kill: def $ax killed $ax killed $eax
	movl	%ebx, %edx
	incq	%rcx
	movw	$16, %r13w
                                        # kill: def $ax killed $ax def $eax
	movl	%eax, 24(%rsp)                  # 4-byte Spill
.LBB0_392:                              # %inst_394
                                        #   in Loop: Header=BB0_52 Depth=6
	movzwl	8(%rsp), %eax                   # 2-byte Folded Reload
	movl	%eax, %edx
	movl	24(%rsp), %eax                  # 4-byte Reload
	movl	%eax, %esi
	movl	%r13d, %eax
	movl	%ebx, %edi
	incq	%rcx
	decl	%edx
	movzwl	%dx, %r8d
	movw	%bx, 68(%rsp,%r8,2)
                                        # kill: def $si killed $si def $esi
	movl	%esi, 24(%rsp)                  # 4-byte Spill
                                        # kill: def $dx killed $dx killed $edx
	movw	%dx, 8(%rsp)                    # 2-byte Spill
	jmp	.LBB0_394
.LBB0_393:                              #   in Loop: Header=BB0_52 Depth=6
	movl	%r13d, %eax
.LBB0_394:                              # %inst_395
                                        #   in Loop: Header=BB0_52 Depth=6
	movzwl	8(%rsp), %edx                   # 2-byte Folded Reload
                                        # kill: def $dx killed $dx def $edx
	movl	24(%rsp), %esi                  # 4-byte Reload
                                        # kill: def $si killed $si killed $esi
	movl	%ebx, %edi
	incq	%rcx
	decl	%edx
	movzwl	%dx, %r8d
	movw	%si, 68(%rsp,%r8,2)
                                        # kill: def $si killed $si def $esi
	movl	%esi, 24(%rsp)                  # 4-byte Spill
                                        # kill: def $dx killed $dx killed $edx
	movw	%dx, 8(%rsp)                    # 2-byte Spill
	movl	%eax, %r13d
.LBB0_395:                              # %inst_396
                                        #   in Loop: Header=BB0_52 Depth=6
	movl	24(%rsp), %eax                  # 4-byte Reload
                                        # kill: def $ax killed $ax killed $eax
	movl	%ebx, %esi
	movw	$397, %dx                       # imm = 0x18D
                                        # kill: def $ax killed $ax def $eax
	movl	%eax, 24(%rsp)                  # 4-byte Spill
	jmp	.LBB0_1207
.LBB0_396:                              # %inst_397
                                        #   in Loop: Header=BB0_52 Depth=6
	addq	$2, %r14
	movzwl	8(%rsp), %ecx                   # 2-byte Folded Reload
	movzwl	%cx, %eax
                                        # kill: def $cx killed $cx def $rcx
	incl	%ecx
	movzwl	68(%rsp,%rax,2), %eax
                                        # kill: def $ax killed $ax def $eax
	movl	%eax, 24(%rsp)                  # 4-byte Spill
	movl	%ecx, %eax
	movw	%cx, 8(%rsp)                    # 2-byte Spill
	jmp	.LBB0_398
.LBB0_397:                              #   in Loop: Header=BB0_52 Depth=6
	movq	%rcx, %r14
.LBB0_398:                              # %inst_398
                                        #   in Loop: Header=BB0_52 Depth=6
	movzwl	8(%rsp), %eax                   # 2-byte Folded Reload
                                        # kill: def $ax killed $ax def $rax
	movl	24(%rsp), %ecx                  # 4-byte Reload
                                        # kill: def $cx killed $cx killed $ecx
	incq	%r14
	leal	1(%rax), %edx
	movzwl	%ax, %eax
	movzwl	68(%rsp,%rax,2), %eax
	movl	%eax, %ebx
	movl	%ecx, %eax
	movl	%eax, 24(%rsp)                  # 4-byte Spill
	movl	%edx, %eax
	movw	%dx, 8(%rsp)                    # 2-byte Spill
	jmp	.LBB0_400
.LBB0_399:                              #   in Loop: Header=BB0_52 Depth=6
	movq	%rcx, %r14
.LBB0_400:                              # %inst_399
                                        #   in Loop: Header=BB0_52 Depth=6
	movl	24(%rsp), %eax                  # 4-byte Reload
                                        # kill: def $ax killed $ax killed $eax
	movl	%ebx, %ecx
	incq	%r14
	movzwl	274(%rsp), %edx
	movl	%edx, %r10d
                                        # kill: def $ax killed $ax def $eax
	movl	%eax, 24(%rsp)                  # 4-byte Spill
	jmp	.LBB0_402
.LBB0_401:                              #   in Loop: Header=BB0_52 Depth=6
	movq	%rcx, %r14
.LBB0_402:                              # %inst_400
                                        #   in Loop: Header=BB0_52 Depth=6
	incq	%r14
	testw	%bx, %bx
	jne	.LBB0_405
.LBB0_403:                              #   in Loop: Header=BB0_52 Depth=6
	xorl	%ebx, %ebx
	jmp	.LBB0_1249
.LBB0_404:                              #   in Loop: Header=BB0_52 Depth=6
	movq	%rcx, %r14
.LBB0_405:                              # %inst_401
                                        #   in Loop: Header=BB0_52 Depth=6
	movzwl	8(%rsp), %eax                   # 2-byte Folded Reload
                                        # kill: def $ax killed $ax def $rax
	movl	24(%rsp), %ecx                  # 4-byte Reload
                                        # kill: def $cx killed $cx killed $ecx
	movl	%ebx, %edx
	incq	%r14
	leal	1(%rax), %esi
	movzwl	%ax, %eax
	movzwl	68(%rsp,%rax,2), %eax
                                        # kill: def $cx killed $cx def $ecx
	movl	%ecx, 24(%rsp)                  # 4-byte Spill
	movl	%esi, %ecx
	movw	%si, 8(%rsp)                    # 2-byte Spill
	movl	%eax, %r13d
	jmp	.LBB0_407
.LBB0_406:                              #   in Loop: Header=BB0_52 Depth=6
	movl	%r13d, %eax
	movq	%rcx, %r14
.LBB0_407:                              # %inst_402
                                        #   in Loop: Header=BB0_52 Depth=6
	incq	%r14
	cmpw	$15, %ax
	ja	.LBB0_1249
	jmp	.LBB0_1410
.LBB0_408:                              #   in Loop: Header=BB0_52 Depth=6
	movq	%rcx, %r14
	jmp	.LBB0_1410
.LBB0_409:                              #   in Loop: Header=BB0_52 Depth=6
	movq	%rcx, %r14
	movl	32(%rsp), %esi                  # 4-byte Reload
	jmp	.LBB0_1411
.LBB0_410:                              #   in Loop: Header=BB0_52 Depth=6
                                        # kill: def $r13w killed $r13w killed $r13d def $r13d
	movq	%rcx, %r14
	movl	32(%rsp), %esi                  # 4-byte Reload
	jmp	.LBB0_1412
.LBB0_411:                              #   in Loop: Header=BB0_52 Depth=6
                                        # kill: def $r13w killed $r13w killed $r13d def $r13d
	movq	%rcx, %r14
	movl	20(%rsp), %eax                  # 4-byte Reload
	movl	32(%rsp), %esi                  # 4-byte Reload
	jmp	.LBB0_1413
.LBB0_412:                              #   in Loop: Header=BB0_52 Depth=6
                                        # kill: def $r13w killed $r13w killed $r13d def $r13d
	movq	%rcx, %r14
	movl	32(%rsp), %esi                  # 4-byte Reload
	jmp	.LBB0_1414
.LBB0_413:                              #   in Loop: Header=BB0_52 Depth=6
                                        # kill: def $r13w killed $r13w killed $r13d def $r13d
	movq	%rcx, %r14
	movl	32(%rsp), %esi                  # 4-byte Reload
	jmp	.LBB0_1415
.LBB0_414:                              #   in Loop: Header=BB0_52 Depth=6
                                        # kill: def $r13w killed $r13w killed $r13d def $r13d
	movq	%rcx, %r14
	movl	20(%rsp), %esi                  # 4-byte Reload
	jmp	.LBB0_1416
.LBB0_415:                              #   in Loop: Header=BB0_52 Depth=6
	movq	%rcx, %r14
	movl	20(%rsp), %esi                  # 4-byte Reload
	jmp	.LBB0_1425
.LBB0_416:                              #   in Loop: Header=BB0_52 Depth=6
	movq	%rcx, %r14
	movl	20(%rsp), %esi                  # 4-byte Reload
	jmp	.LBB0_1426
.LBB0_417:                              #   in Loop: Header=BB0_52 Depth=6
	movq	%rcx, %r14
	movl	20(%rsp), %r15d                 # 4-byte Reload
	jmp	.LBB0_1427
.LBB0_418:                              #   in Loop: Header=BB0_52 Depth=6
                                        # kill: def $r13w killed $r13w killed $r13d def $r13d
	movq	%rcx, %r14
	jmp	.LBB0_1428
.LBB0_419:                              #   in Loop: Header=BB0_52 Depth=6
                                        # kill: def $r13w killed $r13w killed $r13d def $r13d
	movq	%rcx, %r14
	jmp	.LBB0_1429
.LBB0_420:                              #   in Loop: Header=BB0_52 Depth=6
	movl	%r10d, %r15d
                                        # kill: def $r13w killed $r13w killed $r13d def $r13d
	movq	%rcx, %r14
	movl	32(%rsp), %ebp                  # 4-byte Reload
	jmp	.LBB0_1431
.LBB0_421:                              #   in Loop: Header=BB0_52 Depth=6
                                        # kill: def $r13w killed $r13w killed $r13d def $r13d
	movq	%rcx, %r14
	movl	20(%rsp), %eax                  # 4-byte Reload
	jmp	.LBB0_1432
.LBB0_422:                              #   in Loop: Header=BB0_52 Depth=6
                                        # kill: def $r13w killed $r13w killed $r13d def $r13d
	movq	%rcx, %r14
	jmp	.LBB0_1433
.LBB0_423:                              #   in Loop: Header=BB0_52 Depth=6
                                        # kill: def $r13w killed $r13w killed $r13d def $r13d
	movq	%rcx, %r14
	jmp	.LBB0_1434
.LBB0_424:                              #   in Loop: Header=BB0_52 Depth=6
                                        # kill: def $r13w killed $r13w killed $r13d def $r13d
	movq	%rcx, %r14
	movl	32(%rsp), %esi                  # 4-byte Reload
	jmp	.LBB0_1435
.LBB0_425:                              #   in Loop: Header=BB0_52 Depth=6
	movq	%rcx, %r14
	movl	32(%rsp), %esi                  # 4-byte Reload
	jmp	.LBB0_1436
.LBB0_426:                              #   in Loop: Header=BB0_52 Depth=6
                                        # kill: def $r13w killed $r13w killed $r13d def $r13d
	movq	%rcx, %r14
	movl	20(%rsp), %ecx                  # 4-byte Reload
	movl	32(%rsp), %esi                  # 4-byte Reload
	jmp	.LBB0_1437
.LBB0_427:                              #   in Loop: Header=BB0_52 Depth=6
                                        # kill: def $r13w killed $r13w killed $r13d def $r13d
	movq	%rcx, %r14
	movl	20(%rsp), %ecx                  # 4-byte Reload
	movl	32(%rsp), %esi                  # 4-byte Reload
	jmp	.LBB0_1461
.LBB0_428:                              #   in Loop: Header=BB0_52 Depth=6
	movq	%rcx, %r14
	jmp	.LBB0_1462
.LBB0_429:                              #   in Loop: Header=BB0_52 Depth=6
                                        # kill: def $r13w killed $r13w killed $r13d def $r13d
	movq	%rcx, %r14
	jmp	.LBB0_1417
.LBB0_430:                              #   in Loop: Header=BB0_52 Depth=6
                                        # kill: def $r13w killed $r13w killed $r13d def $r13d
	movq	%rcx, %r14
	jmp	.LBB0_1418
.LBB0_431:                              #   in Loop: Header=BB0_52 Depth=6
                                        # kill: def $r13w killed $r13w killed $r13d def $r13d
	movq	%rcx, %r14
	jmp	.LBB0_1419
.LBB0_432:                              #   in Loop: Header=BB0_52 Depth=6
                                        # kill: def $r13w killed $r13w killed $r13d def $r13d
	movq	%rcx, %r14
	jmp	.LBB0_1420
.LBB0_433:                              #   in Loop: Header=BB0_52 Depth=6
                                        # kill: def $r13w killed $r13w killed $r13d def $r13d
	movq	%rcx, %r14
	jmp	.LBB0_1421
.LBB0_434:                              #   in Loop: Header=BB0_52 Depth=6
                                        # kill: def $r13w killed $r13w killed $r13d def $r13d
	movq	%rcx, %r14
	movl	20(%rsp), %esi                  # 4-byte Reload
	jmp	.LBB0_1422
.LBB0_435:                              #   in Loop: Header=BB0_52 Depth=6
                                        # kill: def $r13w killed $r13w killed $r13d def $r13d
	movq	%rcx, %r14
	movl	20(%rsp), %esi                  # 4-byte Reload
	jmp	.LBB0_1423
.LBB0_436:                              #   in Loop: Header=BB0_52 Depth=6
                                        # kill: def $r13w killed $r13w killed $r13d def $r13d
	movq	%rcx, %r14
	movl	32(%rsp), %esi                  # 4-byte Reload
	jmp	.LBB0_1424
.LBB0_437:                              #   in Loop: Header=BB0_52 Depth=6
                                        # kill: def $r13w killed $r13w killed $r13d def $r13d
	movq	%rcx, %r14
	movl	32(%rsp), %esi                  # 4-byte Reload
	jmp	.LBB0_1438
.LBB0_438:                              #   in Loop: Header=BB0_52 Depth=6
                                        # kill: def $r13w killed $r13w killed $r13d def $r13d
	movq	%rcx, %r14
	movl	20(%rsp), %eax                  # 4-byte Reload
	movl	32(%rsp), %esi                  # 4-byte Reload
	jmp	.LBB0_1439
.LBB0_439:                              #   in Loop: Header=BB0_52 Depth=6
                                        # kill: def $r13w killed $r13w killed $r13d def $r13d
	movq	%rcx, %r14
	movl	32(%rsp), %esi                  # 4-byte Reload
	jmp	.LBB0_1440
.LBB0_440:                              #   in Loop: Header=BB0_52 Depth=6
	movq	%rcx, %r14
	movl	32(%rsp), %esi                  # 4-byte Reload
	jmp	.LBB0_1441
.LBB0_441:                              #   in Loop: Header=BB0_52 Depth=6
	movq	%rcx, %r14
	movl	32(%rsp), %esi                  # 4-byte Reload
	jmp	.LBB0_1442
.LBB0_442:                              #   in Loop: Header=BB0_52 Depth=6
	movzwl	8(%rsp), %r13d                  # 2-byte Folded Reload
	movl	%r10d, %r15d
	movq	%rcx, %r14
	jmp	.LBB0_1443
.LBB0_443:                              #   in Loop: Header=BB0_52 Depth=6
	movq	%rcx, %r14
	movl	32(%rsp), %ecx                  # 4-byte Reload
	jmp	.LBB0_1444
.LBB0_444:                              #   in Loop: Header=BB0_52 Depth=6
	movq	%rcx, %r14
	movl	32(%rsp), %ecx                  # 4-byte Reload
	jmp	.LBB0_1445
.LBB0_445:                              #   in Loop: Header=BB0_52 Depth=6
	movl	%r10d, 44(%rsp)                 # 4-byte Spill
	movq	%rcx, %r14
	jmp	.LBB0_1446
.LBB0_446:                              #   in Loop: Header=BB0_52 Depth=6
	movq	%rcx, %r14
	movl	20(%rsp), %eax                  # 4-byte Reload
	jmp	.LBB0_1447
.LBB0_447:                              #   in Loop: Header=BB0_52 Depth=6
	movq	%rcx, %r14
	movl	20(%rsp), %eax                  # 4-byte Reload
	jmp	.LBB0_1448
.LBB0_448:                              #   in Loop: Header=BB0_52 Depth=6
	movq	%rcx, %r14
	jmp	.LBB0_1449
.LBB0_449:                              #   in Loop: Header=BB0_52 Depth=6
	movq	%rcx, %r14
	movl	32(%rsp), %ecx                  # 4-byte Reload
	jmp	.LBB0_1450
.LBB0_450:                              #   in Loop: Header=BB0_52 Depth=6
	movl	%r10d, 44(%rsp)                 # 4-byte Spill
	movq	%rcx, %r14
	jmp	.LBB0_1451
.LBB0_451:                              #   in Loop: Header=BB0_52 Depth=6
	movq	%rcx, %r14
	jmp	.LBB0_1452
.LBB0_452:                              #   in Loop: Header=BB0_52 Depth=6
	movq	%rcx, %r14
	movl	32(%rsp), %ecx                  # 4-byte Reload
	jmp	.LBB0_1453
.LBB0_453:                              #   in Loop: Header=BB0_52 Depth=6
	movl	%r10d, %r15d
	movq	%rcx, %r14
	jmp	.LBB0_1454
.LBB0_454:                              #   in Loop: Header=BB0_52 Depth=6
	movl	%r13d, %eax
	movq	%rcx, %r14
	jmp	.LBB0_1455
.LBB0_455:                              #   in Loop: Header=BB0_52 Depth=6
	movl	%r13d, %eax
	movq	%rcx, %r14
	jmp	.LBB0_1456
.LBB0_456:                              #   in Loop: Header=BB0_52 Depth=6
	movl	%r13d, %edx
	movq	%rcx, %r14
	jmp	.LBB0_1457
.LBB0_457:                              #   in Loop: Header=BB0_52 Depth=6
	movl	%r13d, %edx
	movq	%rcx, %r14
	jmp	.LBB0_1458
.LBB0_458:                              #   in Loop: Header=BB0_52 Depth=6
	movq	%rcx, %r14
	jmp	.LBB0_1459
.LBB0_459:                              # %inst_456
                                        #   in Loop: Header=BB0_52 Depth=6
	movq	%r14, %rcx
	addq	$2, %rcx
	movzwl	8(%rsp), %eax                   # 2-byte Folded Reload
                                        # kill: def $ax killed $ax def $eax
	decl	%eax
	movzwl	%ax, %edx
	movl	16(%rsp), %esi                  # 4-byte Reload
	movw	%si, 68(%rsp,%rdx,2)
                                        # kill: def $ax killed $ax killed $eax
	movw	%ax, 8(%rsp)                    # 2-byte Spill
.LBB0_460:                              # %inst_457
                                        #   in Loop: Header=BB0_52 Depth=6
	incq	%rcx
	movl	%r13d, %eax
	addl	$87, %eax
	jmp	.LBB0_462
.LBB0_461:                              #   in Loop: Header=BB0_52 Depth=6
	movl	%r13d, %eax
.LBB0_462:                              # %inst_458
                                        #   in Loop: Header=BB0_52 Depth=6
	incq	%rcx
	movzwl	%ax, %eax
	movzwl	68(%rsp,%rax,2), %eax
	jmp	.LBB0_464
.LBB0_463:                              #   in Loop: Header=BB0_52 Depth=6
	movl	%r13d, %eax
.LBB0_464:                              # %inst_459
                                        #   in Loop: Header=BB0_52 Depth=6
	incq	%rcx
	addl	$104, %eax
	jmp	.LBB0_466
.LBB0_465:                              #   in Loop: Header=BB0_52 Depth=6
	movl	%r13d, %eax
.LBB0_466:                              # %inst_460
                                        #   in Loop: Header=BB0_52 Depth=6
	incq	%rcx
	movzwl	%ax, %eax
	movzwl	68(%rsp,%rax,2), %eax
	movl	%eax, %ebx
.LBB0_467:                              # %inst_461
                                        #   in Loop: Header=BB0_52 Depth=6
	movzwl	8(%rsp), %eax                   # 2-byte Folded Reload
                                        # kill: def $ax killed $ax def $eax
	movl	%ebx, %esi
	incq	%rcx
	movw	$16, %dx
.LBB0_468:                              # %inst_462
                                        #   in Loop: Header=BB0_52 Depth=6
	movl	%ebx, %esi
	incq	%rcx
	decl	%eax
	movzwl	%ax, %edi
	movw	%bx, 68(%rsp,%rdi,2)
	movl	%edx, %r13d
.LBB0_469:                              # %inst_463
                                        #   in Loop: Header=BB0_52 Depth=6
	movl	%ebx, %esi
	movw	$464, %dx                       # imm = 0x1D0
	jmp	.LBB0_802
.LBB0_470:                              #   in Loop: Header=BB0_52 Depth=6
	movl	%r13d, %edx
	movzwl	8(%rsp), %eax                   # 2-byte Folded Reload
                                        # kill: def $ax killed $ax def $eax
	jmp	.LBB0_468
.LBB0_471:                              #   in Loop: Header=BB0_52 Depth=6
	movzwl	8(%rsp), %eax                   # 2-byte Folded Reload
                                        # kill: def $ax killed $ax def $eax
	jmp	.LBB0_469
.LBB0_472:                              # %inst_464
                                        #   in Loop: Header=BB0_52 Depth=6
	movq	%r14, %rcx
	addq	$2, %rcx
	movzwl	8(%rsp), %edx                   # 2-byte Folded Reload
	movl	%edx, %eax
	incl	%eax
	movzwl	%dx, %edx
	movzwl	68(%rsp,%rdx,2), %edx
	movl	%edx, %ebx
	jmp	.LBB0_474
.LBB0_473:                              #   in Loop: Header=BB0_52 Depth=6
	movzwl	8(%rsp), %eax                   # 2-byte Folded Reload
                                        # kill: def $ax killed $ax def $eax
.LBB0_474:                              # %inst_465
                                        #   in Loop: Header=BB0_52 Depth=6
	movl	%ebx, %edx
	incq	%rcx
	movzwl	274(%rsp), %esi
	movl	%esi, %edx
	movl	%edx, 32(%rsp)                  # 4-byte Spill
	jmp	.LBB0_476
.LBB0_475:                              #   in Loop: Header=BB0_52 Depth=6
	movzwl	8(%rsp), %eax                   # 2-byte Folded Reload
                                        # kill: def $ax killed $ax def $eax
.LBB0_476:                              # %inst_466
                                        #   in Loop: Header=BB0_52 Depth=6
	movl	%ebx, %esi
	incq	%rcx
	movw	$16, %dx
	jmp	.LBB0_478
.LBB0_477:                              #   in Loop: Header=BB0_52 Depth=6
	movl	%r13d, %edx
	movzwl	8(%rsp), %eax                   # 2-byte Folded Reload
                                        # kill: def $ax killed $ax def $eax
.LBB0_478:                              # %inst_467
                                        #   in Loop: Header=BB0_52 Depth=6
	movl	%ebx, %esi
	incq	%rcx
	decl	%eax
	movzwl	%ax, %edi
	movw	%bx, 68(%rsp,%rdi,2)
	jmp	.LBB0_480
.LBB0_479:                              #   in Loop: Header=BB0_52 Depth=6
	movl	%r13d, %edx
	movzwl	8(%rsp), %eax                   # 2-byte Folded Reload
                                        # kill: def $ax killed $ax def $eax
.LBB0_480:                              # %inst_468
                                        #   in Loop: Header=BB0_52 Depth=6
	movl	32(%rsp), %esi                  # 4-byte Reload
                                        # kill: def $si killed $si killed $esi
	movl	%ebx, %edi
	incq	%rcx
	decl	%eax
	movzwl	%ax, %r8d
	movw	%si, 68(%rsp,%r8,2)
	movl	%edx, %r13d
.LBB0_481:                              # %inst_469
                                        #   in Loop: Header=BB0_52 Depth=6
	movl	%ebx, %esi
	movw	$470, %dx                       # imm = 0x1D6
	jmp	.LBB0_802
.LBB0_482:                              #   in Loop: Header=BB0_52 Depth=6
	movzwl	8(%rsp), %eax                   # 2-byte Folded Reload
                                        # kill: def $ax killed $ax def $eax
	jmp	.LBB0_481
.LBB0_483:                              # %inst_470
                                        #   in Loop: Header=BB0_52 Depth=6
	addq	$2, %r14
	movzwl	8(%rsp), %ecx                   # 2-byte Folded Reload
	movl	%ecx, %eax
	incl	%eax
	movzwl	%cx, %ecx
	movzwl	68(%rsp,%rcx,2), %ecx
                                        # kill: def $cx killed $cx def $ecx
	movl	%ecx, 32(%rsp)                  # 4-byte Spill
	jmp	.LBB0_485
.LBB0_484:                              #   in Loop: Header=BB0_52 Depth=6
	movzwl	8(%rsp), %eax                   # 2-byte Folded Reload
                                        # kill: def $ax killed $ax def $rax
	movq	%rcx, %r14
.LBB0_485:                              # %inst_471
                                        #   in Loop: Header=BB0_52 Depth=6
	incq	%r14
	leal	1(%rax), %ecx
	movq	%rcx, 8(%rsp)                   # 8-byte Spill
	movzwl	%ax, %eax
	movzwl	68(%rsp,%rax,2), %eax
	movl	%eax, %ebx
	jmp	.LBB0_487
.LBB0_486:                              #   in Loop: Header=BB0_52 Depth=6
	movzwl	8(%rsp), %eax                   # 2-byte Folded Reload
                                        # kill: def $ax killed $ax def $rax
	movq	%rax, 8(%rsp)                   # 8-byte Spill
	movq	%rcx, %r14
.LBB0_487:                              # %inst_472
                                        #   in Loop: Header=BB0_52 Depth=6
	movl	%ebx, %eax
	incq	%r14
	movzwl	274(%rsp), %r12d
	jmp	.LBB0_489
.LBB0_488:                              #   in Loop: Header=BB0_52 Depth=6
	movl	%r13d, %r12d
	movzwl	8(%rsp), %eax                   # 2-byte Folded Reload
                                        # kill: def $ax killed $ax def $rax
	movq	%rax, 8(%rsp)                   # 8-byte Spill
	movq	%rcx, %r14
.LBB0_489:                              # %inst_473
                                        #   in Loop: Header=BB0_52 Depth=6
	movl	%ebx, %eax
	incq	%r14
	leal	1(%rax), %ecx
	movzwl	%cx, %ecx
	movzwl	68(%rsp,%rcx,2), %ecx
	movl	%ecx, %r13d
	jmp	.LBB0_491
.LBB0_490:                              #   in Loop: Header=BB0_52 Depth=6
	movl	%r13d, %r12d
	movzwl	8(%rsp), %eax                   # 2-byte Folded Reload
                                        # kill: def $ax killed $ax def $rax
	movq	%rax, 8(%rsp)                   # 8-byte Spill
	movq	%rcx, %r14
	movl	16(%rsp), %r13d                 # 4-byte Reload
.LBB0_491:                              # %inst_474
                                        #   in Loop: Header=BB0_52 Depth=6
                                        # kill: def $r13w killed $r13w killed $r13d def $r13d
	movl	%ebx, %eax
	incq	%r14
	addl	$3, %r13d
                                        # kill: def $r13w killed $r13w killed $r13d def $r13d
	movl	%r13d, 24(%rsp)                 # 4-byte Spill
.LBB0_492:                              # %inst_475
                                        #   in Loop: Header=BB0_52 Depth=6
	movl	24(%rsp), %ebp                  # 4-byte Reload
                                        # kill: def $bp killed $bp killed $ebp def $ebp
                                        # kill: def $bx killed $bx killed $ebx
	incq	%r14
	movl	$32, %edi
	movl	%ebp, %esi
	callq	urcl_out@PLT
                                        # kill: def $bx killed $bx def $ebx
                                        # kill: def $bp killed $bp killed $ebp def $ebp
	movl	%ebp, 24(%rsp)                  # 4-byte Spill
.LBB0_493:                              # %inst_476
                                        #   in Loop: Header=BB0_52 Depth=6
	movl	24(%rsp), %eax                  # 4-byte Reload
	movl	%eax, %ebp
                                        # kill: def $bx killed $bx killed $ebx
	incq	%r14
	movl	$33, %edi
	callq	urcl_in@PLT
                                        # kill: def $bx killed $bx def $ebx
	movl	%eax, %r15d
	movl	%ebp, %eax
	jmp	.LBB0_1463
.LBB0_494:                              #   in Loop: Header=BB0_52 Depth=6
	movl	%r13d, %r12d
	movzwl	8(%rsp), %eax                   # 2-byte Folded Reload
                                        # kill: def $ax killed $ax def $rax
	movq	%rax, 8(%rsp)                   # 8-byte Spill
	movq	%rcx, %r14
	jmp	.LBB0_492
.LBB0_495:                              #   in Loop: Header=BB0_52 Depth=6
	movl	%r13d, %r12d
	movzwl	8(%rsp), %eax                   # 2-byte Folded Reload
                                        # kill: def $ax killed $ax def $rax
	movq	%rax, 8(%rsp)                   # 8-byte Spill
	movq	%rcx, %r14
	jmp	.LBB0_493
.LBB0_496:                              #   in Loop: Header=BB0_52 Depth=6
	movl	%r13d, %r12d
	movzwl	8(%rsp), %eax                   # 2-byte Folded Reload
                                        # kill: def $ax killed $ax def $rax
	movq	%rax, 8(%rsp)                   # 8-byte Spill
	movq	%rcx, %r14
	movl	16(%rsp), %r15d                 # 4-byte Reload
	jmp	.LBB0_1464
.LBB0_497:                              #   in Loop: Header=BB0_52 Depth=6
	movl	%r13d, %r12d
	movzwl	8(%rsp), %eax                   # 2-byte Folded Reload
                                        # kill: def $ax killed $ax def $rax
	movq	%rax, 8(%rsp)                   # 8-byte Spill
	movq	%rcx, %r14
	movl	16(%rsp), %r15d                 # 4-byte Reload
	jmp	.LBB0_1465
.LBB0_498:                              #   in Loop: Header=BB0_52 Depth=6
	movl	%r13d, %r12d
	movzwl	8(%rsp), %eax                   # 2-byte Folded Reload
                                        # kill: def $ax killed $ax def $rax
	movq	%rax, 8(%rsp)                   # 8-byte Spill
	movq	%rcx, %r14
	movl	16(%rsp), %r15d                 # 4-byte Reload
	jmp	.LBB0_1466
.LBB0_499:                              #   in Loop: Header=BB0_52 Depth=6
	movl	%r13d, %r12d
	movzwl	8(%rsp), %eax                   # 2-byte Folded Reload
                                        # kill: def $ax killed $ax def $rax
	movq	%rax, 8(%rsp)                   # 8-byte Spill
	movq	%rcx, %r14
	movl	16(%rsp), %r15d                 # 4-byte Reload
	jmp	.LBB0_1467
.LBB0_500:                              #   in Loop: Header=BB0_52 Depth=6
	movl	%r10d, %ebp
	movl	%r13d, %r12d
	movzwl	8(%rsp), %eax                   # 2-byte Folded Reload
                                        # kill: def $ax killed $ax def $rax
	movq	%rax, 8(%rsp)                   # 8-byte Spill
	movq	%rcx, %r14
	movl	16(%rsp), %r15d                 # 4-byte Reload
	jmp	.LBB0_1468
.LBB0_501:                              #   in Loop: Header=BB0_52 Depth=6
	movl	%r13d, %r12d
	movzwl	8(%rsp), %eax                   # 2-byte Folded Reload
                                        # kill: def $ax killed $ax def $rax
	movq	%rax, 8(%rsp)                   # 8-byte Spill
	movq	%rcx, %r14
	movl	16(%rsp), %r15d                 # 4-byte Reload
	jmp	.LBB0_1469
.LBB0_502:                              #   in Loop: Header=BB0_52 Depth=6
	movl	%r13d, %r12d
	movzwl	8(%rsp), %eax                   # 2-byte Folded Reload
                                        # kill: def $ax killed $ax def $rax
	movq	%rax, 8(%rsp)                   # 8-byte Spill
	movq	%rcx, %r14
	jmp	.LBB0_1470
.LBB0_503:                              #   in Loop: Header=BB0_52 Depth=6
	movl	%r13d, %r12d
	movzwl	8(%rsp), %eax                   # 2-byte Folded Reload
                                        # kill: def $ax killed $ax def $rax
	movq	%rax, 8(%rsp)                   # 8-byte Spill
	movq	%rcx, %r14
	jmp	.LBB0_1471
.LBB0_504:                              #   in Loop: Header=BB0_52 Depth=6
	movl	%r13d, %r12d
	movzwl	8(%rsp), %eax                   # 2-byte Folded Reload
                                        # kill: def $ax killed $ax def $rax
	movq	%rax, 8(%rsp)                   # 8-byte Spill
	movq	%rcx, %r14
	jmp	.LBB0_1472
.LBB0_505:                              #   in Loop: Header=BB0_52 Depth=6
	movl	%r13d, %r12d
	movzwl	8(%rsp), %eax                   # 2-byte Folded Reload
                                        # kill: def $ax killed $ax def $rax
	movq	%rax, 8(%rsp)                   # 8-byte Spill
	movq	%rcx, %r14
	jmp	.LBB0_1473
.LBB0_506:                              #   in Loop: Header=BB0_52 Depth=6
	movl	%r13d, %r12d
	movzwl	8(%rsp), %eax                   # 2-byte Folded Reload
                                        # kill: def $ax killed $ax def $rax
	movq	%rax, 8(%rsp)                   # 8-byte Spill
	movq	%rcx, %r14
	jmp	.LBB0_1474
.LBB0_507:                              #   in Loop: Header=BB0_52 Depth=6
	movl	%r13d, %r12d
	movzwl	8(%rsp), %eax                   # 2-byte Folded Reload
                                        # kill: def $ax killed $ax def $rax
	movq	%rax, 8(%rsp)                   # 8-byte Spill
	movq	%rcx, %r14
	jmp	.LBB0_1475
.LBB0_508:                              #   in Loop: Header=BB0_52 Depth=6
	movl	%r13d, %r12d
	movzwl	8(%rsp), %eax                   # 2-byte Folded Reload
                                        # kill: def $ax killed $ax def $rax
	movq	%rax, 8(%rsp)                   # 8-byte Spill
	movq	%rcx, %r14
	jmp	.LBB0_1476
.LBB0_509:                              #   in Loop: Header=BB0_52 Depth=6
	movl	%r13d, %r12d
	movzwl	8(%rsp), %eax                   # 2-byte Folded Reload
                                        # kill: def $ax killed $ax def $rax
	movq	%rax, 8(%rsp)                   # 8-byte Spill
	movq	%rcx, %r14
	jmp	.LBB0_1477
.LBB0_510:                              #   in Loop: Header=BB0_52 Depth=6
	movl	%r13d, %r12d
	movzwl	8(%rsp), %eax                   # 2-byte Folded Reload
                                        # kill: def $ax killed $ax def $rax
	movq	%rax, 8(%rsp)                   # 8-byte Spill
	movq	%rcx, %r14
	jmp	.LBB0_1478
.LBB0_511:                              #   in Loop: Header=BB0_52 Depth=6
	movzwl	8(%rsp), %eax                   # 2-byte Folded Reload
                                        # kill: def $ax killed $ax def $rax
	movq	%rax, 8(%rsp)                   # 8-byte Spill
	movq	%rcx, %r14
	jmp	.LBB0_1479
.LBB0_512:                              #   in Loop: Header=BB0_52 Depth=6
	movl	%ebx, %r15d
	movl	%r13d, %r12d
	movzwl	8(%rsp), %eax                   # 2-byte Folded Reload
                                        # kill: def $ax killed $ax def $rax
	movq	%rax, 8(%rsp)                   # 8-byte Spill
	movq	%rcx, %r14
	jmp	.LBB0_1480
.LBB0_513:                              #   in Loop: Header=BB0_52 Depth=6
	movl	%ebx, %r15d
	movl	%r13d, %r12d
	movzwl	8(%rsp), %eax                   # 2-byte Folded Reload
                                        # kill: def $ax killed $ax def $rax
	movq	%rax, 8(%rsp)                   # 8-byte Spill
	movq	%rcx, %r14
	jmp	.LBB0_1481
.LBB0_514:                              #   in Loop: Header=BB0_52 Depth=6
	movl	%ebx, %r15d
	movl	%r13d, %r12d
	movzwl	8(%rsp), %eax                   # 2-byte Folded Reload
                                        # kill: def $ax killed $ax def $rax
	movq	%rax, 8(%rsp)                   # 8-byte Spill
	movq	%rcx, %r14
	jmp	.LBB0_1482
.LBB0_515:                              #   in Loop: Header=BB0_52 Depth=6
	movl	%ebx, %r15d
	movl	%r13d, %r12d
	movzwl	8(%rsp), %eax                   # 2-byte Folded Reload
                                        # kill: def $ax killed $ax def $rax
	movq	%rax, 8(%rsp)                   # 8-byte Spill
	movq	%rcx, %r14
	movl	16(%rsp), %eax                  # 4-byte Reload
	jmp	.LBB0_1483
.LBB0_516:                              #   in Loop: Header=BB0_52 Depth=6
	movl	%ebx, %r15d
	movl	%r13d, %r12d
	movzwl	8(%rsp), %eax                   # 2-byte Folded Reload
                                        # kill: def $ax killed $ax def $rax
	movq	%rax, 8(%rsp)                   # 8-byte Spill
	movq	%rcx, %r14
	movl	16(%rsp), %ebp                  # 4-byte Reload
	jmp	.LBB0_1484
.LBB0_517:                              #   in Loop: Header=BB0_52 Depth=6
	movl	%ebx, %r15d
	movl	%r13d, %r12d
	movzwl	8(%rsp), %eax                   # 2-byte Folded Reload
                                        # kill: def $ax killed $ax def $rax
	movq	%rax, 8(%rsp)                   # 8-byte Spill
	movq	%rcx, %r14
	movl	16(%rsp), %ebp                  # 4-byte Reload
	jmp	.LBB0_1485
.LBB0_518:                              #   in Loop: Header=BB0_52 Depth=6
	movl	%ebx, %r15d
	movl	%r13d, %r12d
	movzwl	8(%rsp), %eax                   # 2-byte Folded Reload
                                        # kill: def $ax killed $ax def $rax
	movq	%rax, 8(%rsp)                   # 8-byte Spill
	movq	%rcx, %r14
	movl	16(%rsp), %ebp                  # 4-byte Reload
	jmp	.LBB0_1486
.LBB0_519:                              #   in Loop: Header=BB0_52 Depth=6
	movl	%ebx, %r15d
	movl	%r13d, %r12d
	movzwl	8(%rsp), %eax                   # 2-byte Folded Reload
                                        # kill: def $ax killed $ax def $rax
	movq	%rax, 8(%rsp)                   # 8-byte Spill
	movq	%rcx, %r14
	movl	16(%rsp), %ebp                  # 4-byte Reload
	jmp	.LBB0_1487
.LBB0_520:                              #   in Loop: Header=BB0_52 Depth=6
	movl	%ebx, %r15d
	movl	%r13d, %r12d
	movzwl	8(%rsp), %eax                   # 2-byte Folded Reload
                                        # kill: def $ax killed $ax def $rax
	movq	%rax, 8(%rsp)                   # 8-byte Spill
	movq	%rcx, %r14
	movl	16(%rsp), %ebp                  # 4-byte Reload
	jmp	.LBB0_1488
.LBB0_521:                              #   in Loop: Header=BB0_52 Depth=6
	movl	%ebx, %r15d
	movl	%r13d, %r12d
	movzwl	8(%rsp), %eax                   # 2-byte Folded Reload
                                        # kill: def $ax killed $ax def $rax
	movq	%rax, 8(%rsp)                   # 8-byte Spill
	movq	%rcx, %r14
	movl	16(%rsp), %ebp                  # 4-byte Reload
	jmp	.LBB0_1489
.LBB0_522:                              #   in Loop: Header=BB0_52 Depth=6
	movl	%ebx, %r15d
	movl	%r13d, %r12d
	movzwl	8(%rsp), %eax                   # 2-byte Folded Reload
                                        # kill: def $ax killed $ax def $rax
	movq	%rax, 8(%rsp)                   # 8-byte Spill
	movq	%rcx, %r14
	movl	16(%rsp), %ebp                  # 4-byte Reload
	jmp	.LBB0_1490
.LBB0_523:                              #   in Loop: Header=BB0_52 Depth=6
	movl	%ebx, %eax
	movl	%r13d, %r12d
	movq	%rax, %r13
	movzwl	8(%rsp), %eax                   # 2-byte Folded Reload
                                        # kill: def $ax killed $ax def $rax
	movq	%rax, 8(%rsp)                   # 8-byte Spill
	movq	%rcx, %r14
	movl	16(%rsp), %ebp                  # 4-byte Reload
	jmp	.LBB0_1491
.LBB0_524:                              #   in Loop: Header=BB0_52 Depth=6
	movl	%ebx, %eax
	movl	%r13d, %r12d
	movq	%rax, %r13
	movzwl	8(%rsp), %eax                   # 2-byte Folded Reload
                                        # kill: def $ax killed $ax def $rax
	movq	%rax, 8(%rsp)                   # 8-byte Spill
	movq	%rcx, %r14
	movl	16(%rsp), %ebp                  # 4-byte Reload
	jmp	.LBB0_1492
.LBB0_525:                              #   in Loop: Header=BB0_52 Depth=6
	movl	%ebx, %r13d
	movzwl	8(%rsp), %eax                   # 2-byte Folded Reload
                                        # kill: def $ax killed $ax def $rax
	movq	%rax, 8(%rsp)                   # 8-byte Spill
	movq	%rcx, %r14
	movl	16(%rsp), %ebp                  # 4-byte Reload
	jmp	.LBB0_1493
.LBB0_526:                              #   in Loop: Header=BB0_52 Depth=6
	movl	%ebx, %r13d
	movzwl	8(%rsp), %eax                   # 2-byte Folded Reload
                                        # kill: def $ax killed $ax def $rax
	movq	%rax, 8(%rsp)                   # 8-byte Spill
	movq	%rcx, %r14
	movl	16(%rsp), %ebp                  # 4-byte Reload
	jmp	.LBB0_1494
.LBB0_527:                              #   in Loop: Header=BB0_52 Depth=6
	movl	%ebx, %r13d
	movzwl	8(%rsp), %eax                   # 2-byte Folded Reload
                                        # kill: def $ax killed $ax def $rax
	movq	%rax, 8(%rsp)                   # 8-byte Spill
	movq	%rcx, %r14
	movl	16(%rsp), %ebp                  # 4-byte Reload
	jmp	.LBB0_1495
.LBB0_528:                              #   in Loop: Header=BB0_52 Depth=6
	movl	%ebx, %r13d
	movzwl	8(%rsp), %eax                   # 2-byte Folded Reload
                                        # kill: def $ax killed $ax def $rax
	movq	%rax, 8(%rsp)                   # 8-byte Spill
	movq	%rcx, %r14
	jmp	.LBB0_1496
.LBB0_529:                              #   in Loop: Header=BB0_52 Depth=6
	movl	%ebx, %r13d
	movzwl	8(%rsp), %eax                   # 2-byte Folded Reload
                                        # kill: def $ax killed $ax def $rax
	movq	%rax, 8(%rsp)                   # 8-byte Spill
	movq	%rcx, %r14
	jmp	.LBB0_1497
.LBB0_530:                              #   in Loop: Header=BB0_52 Depth=6
	movl	%ebx, %r13d
	movzwl	8(%rsp), %eax                   # 2-byte Folded Reload
                                        # kill: def $ax killed $ax def $rax
	movq	%rax, 8(%rsp)                   # 8-byte Spill
	movq	%rcx, %r14
	jmp	.LBB0_1498
.LBB0_531:                              #   in Loop: Header=BB0_52 Depth=6
	movl	%ebx, %r13d
	movzwl	8(%rsp), %eax                   # 2-byte Folded Reload
                                        # kill: def $ax killed $ax def $rax
	movq	%rax, 8(%rsp)                   # 8-byte Spill
	movq	%rcx, %r14
	jmp	.LBB0_1499
.LBB0_532:                              #   in Loop: Header=BB0_52 Depth=6
	movl	%ebx, %r13d
	movzwl	8(%rsp), %eax                   # 2-byte Folded Reload
                                        # kill: def $ax killed $ax def $rax
	movq	%rax, 8(%rsp)                   # 8-byte Spill
	movq	%rcx, %r14
	jmp	.LBB0_1500
.LBB0_533:                              #   in Loop: Header=BB0_52 Depth=6
	movl	%ebx, %r15d
	movzwl	8(%rsp), %eax                   # 2-byte Folded Reload
                                        # kill: def $ax killed $ax def $rax
	movq	%rax, 8(%rsp)                   # 8-byte Spill
	movq	%rcx, %r14
	jmp	.LBB0_1501
.LBB0_534:                              #   in Loop: Header=BB0_52 Depth=6
	movl	%ebx, %r15d
	movzwl	8(%rsp), %eax                   # 2-byte Folded Reload
                                        # kill: def $ax killed $ax def $rax
	movq	%rax, 8(%rsp)                   # 8-byte Spill
	movq	%rcx, %r14
	jmp	.LBB0_1502
.LBB0_535:                              #   in Loop: Header=BB0_52 Depth=6
	movl	%ebx, %r15d
	movzwl	8(%rsp), %eax                   # 2-byte Folded Reload
                                        # kill: def $ax killed $ax def $rax
	movq	%rax, 8(%rsp)                   # 8-byte Spill
	movq	%rcx, %r14
	jmp	.LBB0_1503
.LBB0_536:                              #   in Loop: Header=BB0_52 Depth=6
	movl	%ebx, %r15d
	movzwl	8(%rsp), %eax                   # 2-byte Folded Reload
                                        # kill: def $ax killed $ax def $rax
	movq	%rax, 8(%rsp)                   # 8-byte Spill
	movq	%rcx, %r14
	jmp	.LBB0_1504
.LBB0_537:                              #   in Loop: Header=BB0_52 Depth=6
	movl	%ebx, %r15d
	movzwl	8(%rsp), %eax                   # 2-byte Folded Reload
                                        # kill: def $ax killed $ax def $rax
	movq	%rax, 8(%rsp)                   # 8-byte Spill
	movq	%rcx, %r14
	jmp	.LBB0_1505
.LBB0_538:                              #   in Loop: Header=BB0_52 Depth=6
	movl	%ebx, %r15d
	movzwl	8(%rsp), %eax                   # 2-byte Folded Reload
                                        # kill: def $ax killed $ax def $rax
	movq	%rax, 8(%rsp)                   # 8-byte Spill
	movq	%rcx, %r14
	jmp	.LBB0_1506
.LBB0_539:                              #   in Loop: Header=BB0_52 Depth=6
	movl	%ebx, %r15d
	movzwl	8(%rsp), %eax                   # 2-byte Folded Reload
                                        # kill: def $ax killed $ax def $rax
	movq	%rax, 8(%rsp)                   # 8-byte Spill
	movq	%rcx, %r14
	jmp	.LBB0_1507
.LBB0_540:                              #   in Loop: Header=BB0_52 Depth=6
	movl	%ebx, %r15d
	movzwl	8(%rsp), %eax                   # 2-byte Folded Reload
                                        # kill: def $ax killed $ax def $rax
	movq	%rax, 8(%rsp)                   # 8-byte Spill
	movq	%rcx, %r14
	jmp	.LBB0_1508
.LBB0_541:                              #   in Loop: Header=BB0_52 Depth=6
	movl	%ebx, %r15d
	movzwl	8(%rsp), %eax                   # 2-byte Folded Reload
                                        # kill: def $ax killed $ax def $rax
	movq	%rax, 8(%rsp)                   # 8-byte Spill
	movq	%rcx, %r14
	jmp	.LBB0_1509
.LBB0_542:                              #   in Loop: Header=BB0_52 Depth=6
	movl	%ebx, %edx
	movzwl	8(%rsp), %eax                   # 2-byte Folded Reload
                                        # kill: def $ax killed $ax def $rax
	movq	%rax, 8(%rsp)                   # 8-byte Spill
	movq	%rcx, %r14
	jmp	.LBB0_1510
.LBB0_543:                              #   in Loop: Header=BB0_52 Depth=6
	movl	%ebx, %edx
	movzwl	8(%rsp), %eax                   # 2-byte Folded Reload
                                        # kill: def $ax killed $ax def $rax
	movq	%rax, 8(%rsp)                   # 8-byte Spill
	movq	%rcx, %r14
	jmp	.LBB0_1511
.LBB0_544:                              #   in Loop: Header=BB0_52 Depth=6
	movl	%ebx, %edx
	movzwl	8(%rsp), %eax                   # 2-byte Folded Reload
                                        # kill: def $ax killed $ax def $rax
	movq	%rax, 8(%rsp)                   # 8-byte Spill
	movq	%rcx, %r14
	jmp	.LBB0_1512
.LBB0_545:                              # %inst_578
                                        #   in Loop: Header=BB0_52 Depth=6
	addq	$2, %r14
	movzwl	8(%rsp), %ecx                   # 2-byte Folded Reload
	movl	%ecx, %eax
	incl	%eax
	movzwl	%cx, %ecx
	movzwl	68(%rsp,%rcx,2), %r13d
	jmp	.LBB0_547
.LBB0_546:                              #   in Loop: Header=BB0_52 Depth=6
	movl	32(%rsp), %eax                  # 4-byte Reload
	movl	%eax, %r13d
	movzwl	8(%rsp), %eax                   # 2-byte Folded Reload
                                        # kill: def $ax killed $ax def $rax
	movq	%rcx, %r14
.LBB0_547:                              # %inst_579
                                        #   in Loop: Header=BB0_52 Depth=6
	incq	%r14
	leal	1(%rax), %edx
	movzwl	%ax, %eax
	movzwl	68(%rsp,%rax,2), %eax
                                        # kill: def $ax killed $ax def $eax
	movl	%eax, 24(%rsp)                  # 4-byte Spill
	jmp	.LBB0_549
.LBB0_548:                              #   in Loop: Header=BB0_52 Depth=6
	movl	32(%rsp), %eax                  # 4-byte Reload
	movl	%eax, %r13d
	movzwl	8(%rsp), %eax                   # 2-byte Folded Reload
	movl	%eax, %edx
	movq	%rcx, %r14
.LBB0_549:                              # %inst_580
                                        #   in Loop: Header=BB0_52 Depth=6
	movl	16(%rsp), %ebp                  # 4-byte Reload
	movl	24(%rsp), %eax                  # 4-byte Reload
	movl	%eax, %ecx
	incq	%r14
	leal	1(%rdx), %eax
	movzwl	%dx, %edx
	movzwl	68(%rsp,%rdx,2), %edx
	movl	%edx, %r10d
                                        # kill: def $cx killed $cx def $ecx
	movl	%ecx, 24(%rsp)                  # 4-byte Spill
	jmp	.LBB0_551
.LBB0_550:                              #   in Loop: Header=BB0_52 Depth=6
	movl	32(%rsp), %eax                  # 4-byte Reload
	movl	%eax, %r13d
	movzwl	8(%rsp), %eax                   # 2-byte Folded Reload
                                        # kill: def $ax killed $ax def $rax
	movq	%rcx, %r14
	movl	16(%rsp), %ebp                  # 4-byte Reload
.LBB0_551:                              # %inst_581
                                        #   in Loop: Header=BB0_52 Depth=6
	movl	24(%rsp), %ecx                  # 4-byte Reload
                                        # kill: def $cx killed $cx killed $ecx
	incq	%r14
	leal	1(%rax), %edx
	movzwl	%ax, %eax
	movzwl	68(%rsp,%rax,2), %eax
                                        # kill: def $cx killed $cx def $ecx
	movl	%ecx, 24(%rsp)                  # 4-byte Spill
                                        # kill: def $ax killed $ax def $eax
	movl	%eax, 20(%rsp)                  # 4-byte Spill
	jmp	.LBB0_553
.LBB0_552:                              #   in Loop: Header=BB0_52 Depth=6
	movl	32(%rsp), %eax                  # 4-byte Reload
	movl	%eax, %r13d
	movzwl	8(%rsp), %eax                   # 2-byte Folded Reload
	movl	%eax, %edx
	movq	%rcx, %r14
	movl	16(%rsp), %ebp                  # 4-byte Reload
.LBB0_553:                              # %inst_582
                                        #   in Loop: Header=BB0_52 Depth=6
	movl	24(%rsp), %eax                  # 4-byte Reload
                                        # kill: def $ax killed $ax killed $eax
	incq	%r14
	incl	%edx
	movq	%rdx, 8(%rsp)                   # 8-byte Spill
                                        # kill: def $ax killed $ax def $eax
	movl	%eax, 24(%rsp)                  # 4-byte Spill
.LBB0_554:                              # %inst_583
                                        #   in Loop: Header=BB0_52 Depth=6
	movl	%r10d, %r12d
	movl	24(%rsp), %eax                  # 4-byte Reload
                                        # kill: def $ax killed $ax killed $eax
	incq	%r14
                                        # kill: def $ax killed $ax def $eax
	movl	%eax, 24(%rsp)                  # 4-byte Spill
.LBB0_555:                              # %inst_584
                                        #   in Loop: Header=BB0_52 Depth=6
	movl	24(%rsp), %esi                  # 4-byte Reload
                                        # kill: def $si killed $si killed $esi def $esi
	incq	%r14
	movl	$32, %edi
	callq	urcl_out@PLT
.LBB0_556:                              # %inst_585
                                        #   in Loop: Header=BB0_52 Depth=6
	incq	%r14
	movl	%ebp, %esi
	movl	$33, %edi
	callq	urcl_out@PLT
.LBB0_557:                              # %inst_586
                                        #   in Loop: Header=BB0_52 Depth=6
	incq	%r14
	movl	%ebp, %esi
	movl	$32, %edi
	callq	urcl_out@PLT
.LBB0_558:                              # %inst_587
                                        #   in Loop: Header=BB0_52 Depth=6
	incq	%r14
	movl	$33, %edi
	movl	$46, %esi
	callq	urcl_out@PLT
.LBB0_559:                              # %inst_588
                                        #   in Loop: Header=BB0_52 Depth=6
	incq	%r14
	movl	%ebp, %eax
	incl	%eax
	movl	%eax, %ebp
.LBB0_560:                              # %inst_589
                                        #   in Loop: Header=BB0_52 Depth=6
                                        # kill: def $bp killed $bp killed $ebp def $ebp
	incq	%r14
	movl	$32, %edi
	movl	%ebp, %esi
	callq	urcl_out@PLT
                                        # kill: def $bp killed $bp killed $ebp def $ebp
.LBB0_561:                              # %inst_590
                                        #   in Loop: Header=BB0_52 Depth=6
	incq	%r14
	movl	$33, %edi
	xorl	%esi, %esi
	callq	urcl_out@PLT
.LBB0_562:                              # %inst_591
                                        #   in Loop: Header=BB0_52 Depth=6
	movl	%ebp, %eax
	incq	%r14
	incl	%eax
	movl	%eax, %ebp
.LBB0_563:                              # %inst_592
                                        #   in Loop: Header=BB0_52 Depth=6
                                        # kill: def $bp killed $bp killed $ebp def $ebp
	incq	%r14
	movl	$32, %edi
	movl	%ebp, %esi
	callq	urcl_out@PLT
	movl	%ebp, %r15d
.LBB0_564:                              # %inst_593
                                        #   in Loop: Header=BB0_52 Depth=6
	movl	20(%rsp), %eax                  # 4-byte Reload
                                        # kill: def $ax killed $ax killed $eax def $eax
	incq	%r14
	incl	%eax
	movl	%eax, %ebp
.LBB0_565:                              # %inst_594
                                        #   in Loop: Header=BB0_52 Depth=6
                                        # kill: def $bp killed $bp killed $ebp def $ebp
	incq	%r14
	movl	$33, %edi
	movl	%ebp, %esi
	callq	urcl_out@PLT
	movl	%ebp, %eax
	movl	%r12d, %r10d
.LBB0_566:                              # %inst_595
                                        #   in Loop: Header=BB0_52 Depth=6
                                        # kill: def $ax killed $ax killed $eax def $eax
	incq	%r14
	decl	%eax
                                        # kill: def $ax killed $ax killed $eax def $eax
	movl	%eax, 20(%rsp)                  # 4-byte Spill
.LBB0_567:                              # %inst_596
                                        #   in Loop: Header=BB0_52 Depth=6
	movl	%r10d, %r12d
	movl	%r15d, %eax
	incq	%r14
	incl	%eax
	movl	%eax, %ebp
.LBB0_568:                              # %inst_597
                                        #   in Loop: Header=BB0_52 Depth=6
                                        # kill: def $bp killed $bp killed $ebp def $ebp
	incq	%r14
	movl	$32, %edi
	movl	%ebp, %esi
	callq	urcl_out@PLT
	movl	%ebp, %eax
.LBB0_569:                              # %inst_598
                                        #   in Loop: Header=BB0_52 Depth=6
                                        # kill: def $ax killed $ax killed $eax def $eax
	incq	%r14
	incl	%eax
	movl	%eax, %ebp
.LBB0_570:                              # %inst_599
                                        #   in Loop: Header=BB0_52 Depth=6
                                        # kill: def $bp killed $bp killed $ebp def $ebp
	incq	%r14
	movl	$33, %edi
	movl	%ebp, %esi
	callq	urcl_out@PLT
                                        # kill: def $bp killed $bp killed $ebp def $ebp
.LBB0_571:                              # %inst_600
                                        #   in Loop: Header=BB0_52 Depth=6
                                        # kill: def $bp killed $bp killed $ebp def $ebp
	incq	%r14
	movl	$32, %edi
	movl	%ebp, %esi
	callq	urcl_out@PLT
                                        # kill: def $bp killed $bp killed $ebp def $ebp
	movl	%r12d, %r10d
.LBB0_572:                              # %inst_601
                                        #   in Loop: Header=BB0_52 Depth=6
	movl	%r10d, %esi
	incq	%r14
	movl	$33, %edi
	callq	urcl_out@PLT
.LBB0_573:                              # %inst_602
                                        #   in Loop: Header=BB0_52 Depth=6
	movl	%ebp, %eax
	incq	%r14
	incl	%eax
	movl	%eax, %edx
	movl	%r13d, %esi
.LBB0_574:                              # %inst_603
                                        #   in Loop: Header=BB0_52 Depth=6
	movl	%edx, %eax
	incq	%r14
	movzwl	%bx, %ecx
	movw	%dx, 68(%rsp,%rcx,2)
.LBB0_575:                              # %inst_604
                                        #   in Loop: Header=BB0_52 Depth=6
	movl	%edx, %eax
	incq	%r14
	addl	$-4, %eax
	movl	%eax, %edx
.LBB0_576:                              # %inst_605
                                        #   in Loop: Header=BB0_52 Depth=6
	movl	%edx, %eax
	incq	%r14
	movl	%ebx, %ecx
	incl	%ecx
	movzwl	%cx, %ecx
	movw	%dx, 68(%rsp,%rcx,2)
.LBB0_577:                              # %inst_606
                                        #   in Loop: Header=BB0_52 Depth=6
	movl	%edx, %eax
	incq	%r14
	addl	$4, %eax
	movl	%eax, %ecx
.LBB0_578:                              # %inst_607
                                        #   in Loop: Header=BB0_52 Depth=6
	incq	%r14
	movl	%ebx, %eax
	addl	$3, %eax
	movzwl	%ax, %eax
	movw	$0, 68(%rsp,%rax,2)
.LBB0_579:                              # %inst_608
                                        #   in Loop: Header=BB0_52 Depth=6
	movl	20(%rsp), %eax                  # 4-byte Reload
                                        # kill: def $ax killed $ax killed $eax def $eax
                                        # kill: def $cx killed $cx killed $ecx def $ecx
	incq	%r14
	addl	%eax, %ecx
	movl	%ecx, %r10d
	movl	%eax, %edx
.LBB0_580:                              # %inst_609
                                        #   in Loop: Header=BB0_52 Depth=6
	movl	%r10d, %eax
	incq	%r14
	movl	%ebx, %ecx
	addl	$2, %ecx
	movzwl	%cx, %ecx
	movw	%r10w, 68(%rsp,%rcx,2)
	jmp	.LBB0_1514
.LBB0_581:                              #   in Loop: Header=BB0_52 Depth=6
	movl	32(%rsp), %eax                  # 4-byte Reload
	movl	%eax, %r13d
	movzwl	8(%rsp), %eax                   # 2-byte Folded Reload
                                        # kill: def $ax killed $ax def $rax
	movq	%rax, 8(%rsp)                   # 8-byte Spill
	movq	%rcx, %r14
	movl	16(%rsp), %ebp                  # 4-byte Reload
	jmp	.LBB0_554
.LBB0_582:                              #   in Loop: Header=BB0_52 Depth=6
	movl	%r10d, %r12d
	movl	32(%rsp), %eax                  # 4-byte Reload
	movl	%eax, %r13d
	movzwl	8(%rsp), %eax                   # 2-byte Folded Reload
                                        # kill: def $ax killed $ax def $rax
	movq	%rax, 8(%rsp)                   # 8-byte Spill
	movq	%rcx, %r14
	movl	16(%rsp), %ebp                  # 4-byte Reload
	jmp	.LBB0_555
.LBB0_583:                              #   in Loop: Header=BB0_52 Depth=6
	movl	%r10d, %r12d
	movl	32(%rsp), %eax                  # 4-byte Reload
	movl	%eax, %r13d
	movzwl	8(%rsp), %eax                   # 2-byte Folded Reload
                                        # kill: def $ax killed $ax def $rax
	movq	%rax, 8(%rsp)                   # 8-byte Spill
	movq	%rcx, %r14
	movl	16(%rsp), %ebp                  # 4-byte Reload
	jmp	.LBB0_556
.LBB0_584:                              #   in Loop: Header=BB0_52 Depth=6
	movl	%r10d, %r12d
	movl	32(%rsp), %eax                  # 4-byte Reload
	movl	%eax, %r13d
	movzwl	8(%rsp), %eax                   # 2-byte Folded Reload
                                        # kill: def $ax killed $ax def $rax
	movq	%rax, 8(%rsp)                   # 8-byte Spill
	movq	%rcx, %r14
	movl	16(%rsp), %ebp                  # 4-byte Reload
	jmp	.LBB0_557
.LBB0_585:                              #   in Loop: Header=BB0_52 Depth=6
	movl	%r10d, %r12d
	movl	32(%rsp), %eax                  # 4-byte Reload
	movl	%eax, %r13d
	movzwl	8(%rsp), %eax                   # 2-byte Folded Reload
                                        # kill: def $ax killed $ax def $rax
	movq	%rax, 8(%rsp)                   # 8-byte Spill
	movq	%rcx, %r14
	movl	16(%rsp), %ebp                  # 4-byte Reload
	jmp	.LBB0_558
.LBB0_586:                              #   in Loop: Header=BB0_52 Depth=6
	movl	%r10d, %r12d
	movl	32(%rsp), %eax                  # 4-byte Reload
	movl	%eax, %r13d
	movzwl	8(%rsp), %eax                   # 2-byte Folded Reload
                                        # kill: def $ax killed $ax def $rax
	movq	%rax, 8(%rsp)                   # 8-byte Spill
	movq	%rcx, %r14
	movl	16(%rsp), %ebp                  # 4-byte Reload
	jmp	.LBB0_559
.LBB0_587:                              #   in Loop: Header=BB0_52 Depth=6
	movl	%r10d, %r12d
	movl	32(%rsp), %eax                  # 4-byte Reload
	movl	%eax, %r13d
	movzwl	8(%rsp), %eax                   # 2-byte Folded Reload
                                        # kill: def $ax killed $ax def $rax
	movq	%rax, 8(%rsp)                   # 8-byte Spill
	movq	%rcx, %r14
	movl	16(%rsp), %ebp                  # 4-byte Reload
	jmp	.LBB0_560
.LBB0_588:                              #   in Loop: Header=BB0_52 Depth=6
	movl	%r10d, %r12d
	movl	32(%rsp), %eax                  # 4-byte Reload
	movl	%eax, %r13d
	movzwl	8(%rsp), %eax                   # 2-byte Folded Reload
                                        # kill: def $ax killed $ax def $rax
	movq	%rax, 8(%rsp)                   # 8-byte Spill
	movq	%rcx, %r14
	movl	16(%rsp), %ebp                  # 4-byte Reload
	jmp	.LBB0_561
.LBB0_589:                              #   in Loop: Header=BB0_52 Depth=6
	movl	%r10d, %r12d
	movl	32(%rsp), %eax                  # 4-byte Reload
	movl	%eax, %r13d
	movzwl	8(%rsp), %eax                   # 2-byte Folded Reload
                                        # kill: def $ax killed $ax def $rax
	movq	%rax, 8(%rsp)                   # 8-byte Spill
	movq	%rcx, %r14
	movl	16(%rsp), %ebp                  # 4-byte Reload
	jmp	.LBB0_562
.LBB0_590:                              #   in Loop: Header=BB0_52 Depth=6
	movl	%r10d, %r12d
	movl	32(%rsp), %eax                  # 4-byte Reload
	movl	%eax, %r13d
	movzwl	8(%rsp), %eax                   # 2-byte Folded Reload
                                        # kill: def $ax killed $ax def $rax
	movq	%rax, 8(%rsp)                   # 8-byte Spill
	movq	%rcx, %r14
	movl	16(%rsp), %ebp                  # 4-byte Reload
	jmp	.LBB0_563
.LBB0_591:                              #   in Loop: Header=BB0_52 Depth=6
	movl	%r10d, %r12d
	movl	32(%rsp), %eax                  # 4-byte Reload
	movl	%eax, %r13d
	movzwl	8(%rsp), %eax                   # 2-byte Folded Reload
                                        # kill: def $ax killed $ax def $rax
	movq	%rax, 8(%rsp)                   # 8-byte Spill
	movq	%rcx, %r14
	movl	16(%rsp), %r15d                 # 4-byte Reload
	jmp	.LBB0_564
.LBB0_592:                              #   in Loop: Header=BB0_52 Depth=6
	movl	%r10d, %r12d
	movl	32(%rsp), %eax                  # 4-byte Reload
	movl	%eax, %r13d
	movzwl	8(%rsp), %eax                   # 2-byte Folded Reload
                                        # kill: def $ax killed $ax def $rax
	movq	%rax, 8(%rsp)                   # 8-byte Spill
	movq	%rcx, %r14
	movl	16(%rsp), %r15d                 # 4-byte Reload
	movl	20(%rsp), %ebp                  # 4-byte Reload
	jmp	.LBB0_565
.LBB0_593:                              #   in Loop: Header=BB0_52 Depth=6
	movl	32(%rsp), %eax                  # 4-byte Reload
	movl	%eax, %r13d
	movzwl	8(%rsp), %eax                   # 2-byte Folded Reload
                                        # kill: def $ax killed $ax def $rax
	movq	%rax, 8(%rsp)                   # 8-byte Spill
	movq	%rcx, %r14
	movl	16(%rsp), %r15d                 # 4-byte Reload
	movl	20(%rsp), %eax                  # 4-byte Reload
	jmp	.LBB0_566
.LBB0_594:                              #   in Loop: Header=BB0_52 Depth=6
	movl	32(%rsp), %eax                  # 4-byte Reload
	movl	%eax, %r13d
	movzwl	8(%rsp), %eax                   # 2-byte Folded Reload
                                        # kill: def $ax killed $ax def $rax
	movq	%rax, 8(%rsp)                   # 8-byte Spill
	movq	%rcx, %r14
	movl	16(%rsp), %r15d                 # 4-byte Reload
	jmp	.LBB0_567
.LBB0_595:                              #   in Loop: Header=BB0_52 Depth=6
	movl	%r10d, %r12d
	movl	32(%rsp), %eax                  # 4-byte Reload
	movl	%eax, %r13d
	movzwl	8(%rsp), %eax                   # 2-byte Folded Reload
                                        # kill: def $ax killed $ax def $rax
	movq	%rax, 8(%rsp)                   # 8-byte Spill
	movq	%rcx, %r14
	movl	16(%rsp), %ebp                  # 4-byte Reload
	jmp	.LBB0_568
.LBB0_596:                              #   in Loop: Header=BB0_52 Depth=6
	movl	%r10d, %r12d
	movl	32(%rsp), %eax                  # 4-byte Reload
	movl	%eax, %r13d
	movzwl	8(%rsp), %eax                   # 2-byte Folded Reload
                                        # kill: def $ax killed $ax def $rax
	movq	%rax, 8(%rsp)                   # 8-byte Spill
	movq	%rcx, %r14
	movl	16(%rsp), %eax                  # 4-byte Reload
	jmp	.LBB0_569
.LBB0_597:                              #   in Loop: Header=BB0_52 Depth=6
	movl	%r10d, %r12d
	movl	32(%rsp), %eax                  # 4-byte Reload
	movl	%eax, %r13d
	movzwl	8(%rsp), %eax                   # 2-byte Folded Reload
                                        # kill: def $ax killed $ax def $rax
	movq	%rax, 8(%rsp)                   # 8-byte Spill
	movq	%rcx, %r14
	movl	16(%rsp), %ebp                  # 4-byte Reload
	jmp	.LBB0_570
.LBB0_598:                              #   in Loop: Header=BB0_52 Depth=6
	movl	%r10d, %r12d
	movl	32(%rsp), %eax                  # 4-byte Reload
	movl	%eax, %r13d
	movzwl	8(%rsp), %eax                   # 2-byte Folded Reload
                                        # kill: def $ax killed $ax def $rax
	movq	%rax, 8(%rsp)                   # 8-byte Spill
	movq	%rcx, %r14
	movl	16(%rsp), %ebp                  # 4-byte Reload
	jmp	.LBB0_571
.LBB0_599:                              #   in Loop: Header=BB0_52 Depth=6
	movl	32(%rsp), %eax                  # 4-byte Reload
	movl	%eax, %r13d
	movzwl	8(%rsp), %eax                   # 2-byte Folded Reload
                                        # kill: def $ax killed $ax def $rax
	movq	%rax, 8(%rsp)                   # 8-byte Spill
	movq	%rcx, %r14
	movl	16(%rsp), %ebp                  # 4-byte Reload
	jmp	.LBB0_572
.LBB0_600:                              #   in Loop: Header=BB0_52 Depth=6
	movl	32(%rsp), %eax                  # 4-byte Reload
	movl	%eax, %r13d
	movzwl	8(%rsp), %eax                   # 2-byte Folded Reload
                                        # kill: def $ax killed $ax def $rax
	movq	%rax, 8(%rsp)                   # 8-byte Spill
	movq	%rcx, %r14
	movl	16(%rsp), %ebp                  # 4-byte Reload
	jmp	.LBB0_573
.LBB0_601:                              #   in Loop: Header=BB0_52 Depth=6
	movl	32(%rsp), %eax                  # 4-byte Reload
	movl	%eax, %esi
	movzwl	8(%rsp), %eax                   # 2-byte Folded Reload
                                        # kill: def $ax killed $ax def $rax
	movq	%rax, 8(%rsp)                   # 8-byte Spill
	movq	%rcx, %r14
	movl	16(%rsp), %edx                  # 4-byte Reload
	jmp	.LBB0_574
.LBB0_602:                              #   in Loop: Header=BB0_52 Depth=6
	movl	32(%rsp), %eax                  # 4-byte Reload
	movl	%eax, %esi
	movzwl	8(%rsp), %eax                   # 2-byte Folded Reload
                                        # kill: def $ax killed $ax def $rax
	movq	%rax, 8(%rsp)                   # 8-byte Spill
	movq	%rcx, %r14
	movl	16(%rsp), %edx                  # 4-byte Reload
	jmp	.LBB0_575
.LBB0_603:                              #   in Loop: Header=BB0_52 Depth=6
	movl	32(%rsp), %eax                  # 4-byte Reload
	movl	%eax, %esi
	movzwl	8(%rsp), %eax                   # 2-byte Folded Reload
                                        # kill: def $ax killed $ax def $rax
	movq	%rax, 8(%rsp)                   # 8-byte Spill
	movq	%rcx, %r14
	movl	16(%rsp), %edx                  # 4-byte Reload
	jmp	.LBB0_576
.LBB0_604:                              #   in Loop: Header=BB0_52 Depth=6
	movl	32(%rsp), %eax                  # 4-byte Reload
	movl	%eax, %esi
	movzwl	8(%rsp), %eax                   # 2-byte Folded Reload
                                        # kill: def $ax killed $ax def $rax
	movq	%rax, 8(%rsp)                   # 8-byte Spill
	movq	%rcx, %r14
	movl	16(%rsp), %edx                  # 4-byte Reload
	jmp	.LBB0_577
.LBB0_605:                              #   in Loop: Header=BB0_52 Depth=6
	movl	32(%rsp), %eax                  # 4-byte Reload
	movl	%eax, %esi
	movzwl	8(%rsp), %eax                   # 2-byte Folded Reload
                                        # kill: def $ax killed $ax def $rax
	movq	%rax, 8(%rsp)                   # 8-byte Spill
	movq	%rcx, %r14
	movl	16(%rsp), %ecx                  # 4-byte Reload
	jmp	.LBB0_578
.LBB0_606:                              #   in Loop: Header=BB0_52 Depth=6
	movl	32(%rsp), %eax                  # 4-byte Reload
	movl	%eax, %esi
	movzwl	8(%rsp), %eax                   # 2-byte Folded Reload
                                        # kill: def $ax killed $ax def $rax
	movq	%rax, 8(%rsp)                   # 8-byte Spill
	movq	%rcx, %r14
	movl	16(%rsp), %ecx                  # 4-byte Reload
	jmp	.LBB0_579
.LBB0_607:                              #   in Loop: Header=BB0_52 Depth=6
	movl	32(%rsp), %eax                  # 4-byte Reload
	movl	%eax, %esi
	movzwl	8(%rsp), %eax                   # 2-byte Folded Reload
                                        # kill: def $ax killed $ax def $rax
	movq	%rax, 8(%rsp)                   # 8-byte Spill
	movq	%rcx, %r14
	movl	20(%rsp), %edx                  # 4-byte Reload
	jmp	.LBB0_580
.LBB0_608:                              #   in Loop: Header=BB0_52 Depth=6
	movl	32(%rsp), %eax                  # 4-byte Reload
	movl	%eax, %esi
	movzwl	8(%rsp), %eax                   # 2-byte Folded Reload
                                        # kill: def $ax killed $ax def $rax
	movq	%rax, 8(%rsp)                   # 8-byte Spill
	movq	%rcx, %r14
	jmp	.LBB0_1513
.LBB0_609:                              #   in Loop: Header=BB0_52 Depth=6
	movl	%ebx, %eax
	movl	32(%rsp), %edx                  # 4-byte Reload
	movl	%edx, %esi
	movl	%r13d, %r12d
	movzwl	8(%rsp), %edx                   # 2-byte Folded Reload
                                        # kill: def $dx killed $dx def $rdx
	movq	%rdx, 8(%rsp)                   # 8-byte Spill
	movq	%rcx, %r14
	jmp	.LBB0_1515
.LBB0_610:                              #   in Loop: Header=BB0_52 Depth=6
	movl	%ebx, %eax
	movl	32(%rsp), %edx                  # 4-byte Reload
	movl	%edx, %esi
	movl	%r13d, %r12d
	movzwl	8(%rsp), %edx                   # 2-byte Folded Reload
                                        # kill: def $dx killed $dx def $rdx
	movq	%rdx, 8(%rsp)                   # 8-byte Spill
	movq	%rcx, %r14
	jmp	.LBB0_1516
.LBB0_611:                              #   in Loop: Header=BB0_52 Depth=6
	movl	%ebx, %eax
	movl	32(%rsp), %edx                  # 4-byte Reload
	movl	%edx, %esi
	movl	%r13d, %r12d
	movzwl	8(%rsp), %edx                   # 2-byte Folded Reload
                                        # kill: def $dx killed $dx def $rdx
	movq	%rdx, 8(%rsp)                   # 8-byte Spill
	movq	%rcx, %r14
	movl	16(%rsp), %ecx                  # 4-byte Reload
	jmp	.LBB0_1517
.LBB0_612:                              #   in Loop: Header=BB0_52 Depth=6
	movl	%ebx, %eax
	movl	%r13d, %r12d
	movzwl	8(%rsp), %edx                   # 2-byte Folded Reload
                                        # kill: def $dx killed $dx def $rdx
	movq	%rdx, 8(%rsp)                   # 8-byte Spill
	movq	%rcx, %r14
	movl	16(%rsp), %r15d                 # 4-byte Reload
	jmp	.LBB0_1518
.LBB0_613:                              #   in Loop: Header=BB0_52 Depth=6
	movl	%ebx, %eax
	movl	%r13d, %r12d
	movq	%rax, %r13
	movzwl	8(%rsp), %eax                   # 2-byte Folded Reload
                                        # kill: def $ax killed $ax def $rax
	movq	%rax, 8(%rsp)                   # 8-byte Spill
	movq	%rcx, %r14
	jmp	.LBB0_1520
.LBB0_614:                              #   in Loop: Header=BB0_52 Depth=6
	movl	%ebx, %eax
	movl	%r13d, %r12d
	movq	%rax, %r13
	movzwl	8(%rsp), %eax                   # 2-byte Folded Reload
                                        # kill: def $ax killed $ax def $rax
	movq	%rcx, %r14
	jmp	.LBB0_1521
.LBB0_615:                              # %inst_617
                                        #   in Loop: Header=BB0_52 Depth=6
	movq	%r14, %rcx
	addq	$2, %rcx
	movzwl	8(%rsp), %eax                   # 2-byte Folded Reload
                                        # kill: def $ax killed $ax def $eax
	decl	%eax
	movzwl	%ax, %edx
	movw	%r13w, 68(%rsp,%rdx,2)
	jmp	.LBB0_617
.LBB0_616:                              #   in Loop: Header=BB0_52 Depth=6
	movzwl	8(%rsp), %eax                   # 2-byte Folded Reload
                                        # kill: def $ax killed $ax def $eax
.LBB0_617:                              # %inst_618
                                        #   in Loop: Header=BB0_52 Depth=6
	incq	%rcx
	movw	$16, %dx
                                        # kill: def $ax killed $ax killed $eax
	movw	%ax, 8(%rsp)                    # 2-byte Spill
	movl	%edx, %r13d
.LBB0_618:                              # %inst_619
                                        #   in Loop: Header=BB0_52 Depth=6
	movw	$620, %dx                       # imm = 0x26C
	jmp	.LBB0_1207
.LBB0_619:                              # %inst_620
                                        #   in Loop: Header=BB0_52 Depth=6
	addq	$2, %r14
	movzwl	274(%rsp), %ebx
	jmp	.LBB0_621
.LBB0_620:                              #   in Loop: Header=BB0_52 Depth=6
                                        # kill: def $bx killed $bx killed $ebx def $ebx
	movq	%rcx, %r14
.LBB0_621:                              # %inst_621
                                        #   in Loop: Header=BB0_52 Depth=6
	incq	%r14
	addl	$104, %ebx
	jmp	.LBB0_623
.LBB0_622:                              #   in Loop: Header=BB0_52 Depth=6
                                        # kill: def $bx killed $bx killed $ebx def $ebx
	movq	%rcx, %r14
.LBB0_623:                              # %inst_622
                                        #   in Loop: Header=BB0_52 Depth=6
	incq	%r14
	movzwl	%bx, %eax
	movzwl	68(%rsp,%rax,2), %ebx
	jmp	.LBB0_625
.LBB0_624:                              #   in Loop: Header=BB0_52 Depth=6
                                        # kill: def $bx killed $bx killed $ebx def $rbx
	movq	%rcx, %r14
.LBB0_625:                              # %inst_623
                                        #   in Loop: Header=BB0_52 Depth=6
	incq	%r14
	movzwl	%bx, %eax
	movzwl	68(%rsp,%rax,2), %eax
	jmp	.LBB0_627
.LBB0_626:                              #   in Loop: Header=BB0_52 Depth=6
                                        # kill: def $bx killed $bx killed $ebx def $rbx
	movl	32(%rsp), %eax                  # 4-byte Reload
                                        # kill: def $ax killed $ax killed $eax
	movq	%rcx, %r14
.LBB0_627:                              # %inst_624
                                        #   in Loop: Header=BB0_52 Depth=6
	incq	%r14
	movzwl	8(%rsp), %edx                   # 2-byte Folded Reload
	movl	%edx, %ecx
	leal	1(%rcx), %r13d
	movzwl	%dx, %ecx
	movzwl	68(%rsp,%rcx,2), %edx
.LBB0_628:                              # %inst_625
                                        #   in Loop: Header=BB0_52 Depth=6
	incq	%r14
	addl	$87, %edx
.LBB0_629:                              # %inst_626
                                        #   in Loop: Header=BB0_52 Depth=6
	incq	%r14
	movzwl	%dx, %ecx
	movzwl	68(%rsp,%rcx,2), %r12d
.LBB0_630:                              # %inst_627
                                        #   in Loop: Header=BB0_52 Depth=6
	incq	%r14
	decl	%r13d
	movzwl	%r13w, %ecx
	movw	%ax, 68(%rsp,%rcx,2)
	jmp	.LBB0_1524
.LBB0_631:                              #   in Loop: Header=BB0_52 Depth=6
                                        # kill: def $bx killed $bx killed $ebx def $rbx
	movl	32(%rsp), %eax                  # 4-byte Reload
                                        # kill: def $ax killed $ax killed $eax
	movl	%r13d, %edx
	movzwl	8(%rsp), %esi                   # 2-byte Folded Reload
	movl	%esi, %r13d
	movq	%rcx, %r14
	jmp	.LBB0_628
.LBB0_632:                              #   in Loop: Header=BB0_52 Depth=6
                                        # kill: def $bx killed $bx killed $ebx def $rbx
	movl	32(%rsp), %eax                  # 4-byte Reload
                                        # kill: def $ax killed $ax killed $eax
	movl	%r13d, %edx
	movzwl	8(%rsp), %esi                   # 2-byte Folded Reload
	movl	%esi, %r13d
	movq	%rcx, %r14
	jmp	.LBB0_629
.LBB0_633:                              #   in Loop: Header=BB0_52 Depth=6
                                        # kill: def $bx killed $bx killed $ebx def $rbx
	movl	32(%rsp), %eax                  # 4-byte Reload
                                        # kill: def $ax killed $ax killed $eax
	movl	%r13d, %r12d
	movzwl	8(%rsp), %edx                   # 2-byte Folded Reload
	movl	%edx, %r13d
	movq	%rcx, %r14
	jmp	.LBB0_630
.LBB0_634:                              #   in Loop: Header=BB0_52 Depth=6
                                        # kill: def $bx killed $bx killed $ebx def $rbx
	movl	%r13d, %r12d
	movzwl	8(%rsp), %eax                   # 2-byte Folded Reload
	movl	%eax, %r13d
	movq	%rcx, %r14
	jmp	.LBB0_1524
.LBB0_635:                              #   in Loop: Header=BB0_52 Depth=6
                                        # kill: def $bx killed $bx killed $ebx def $rbx
	movl	32(%rsp), %eax                  # 4-byte Reload
                                        # kill: def $ax killed $ax killed $eax def $eax
	movl	%r13d, %r12d
	movzwl	8(%rsp), %edx                   # 2-byte Folded Reload
	movl	%edx, %r13d
	movq	%rcx, %r14
	jmp	.LBB0_1525
.LBB0_636:                              #   in Loop: Header=BB0_52 Depth=6
                                        # kill: def $bx killed $bx killed $ebx def $rbx
	movl	32(%rsp), %r12d                 # 4-byte Reload
                                        # kill: def $r12w killed $r12w killed $r12d def $r12d
	movzwl	8(%rsp), %eax                   # 2-byte Folded Reload
	movl	%eax, %r13d
	movq	%rcx, %r14
	jmp	.LBB0_1526
.LBB0_637:                              #   in Loop: Header=BB0_52 Depth=6
                                        # kill: def $bx killed $bx killed $ebx def $rbx
	movl	32(%rsp), %r12d                 # 4-byte Reload
                                        # kill: def $r12w killed $r12w killed $r12d def $r12d
	movl	%r13d, %esi
	movzwl	8(%rsp), %eax                   # 2-byte Folded Reload
	movl	%eax, %r13d
	movq	%rcx, %r14
	jmp	.LBB0_1527
.LBB0_638:                              #   in Loop: Header=BB0_52 Depth=6
                                        # kill: def $bx killed $bx killed $ebx def $rbx
	movl	32(%rsp), %r12d                 # 4-byte Reload
                                        # kill: def $r12w killed $r12w killed $r12d def $r12d
	movl	%r13d, %esi
	movzwl	8(%rsp), %eax                   # 2-byte Folded Reload
	movl	%eax, %r13d
	movq	%rcx, %r14
	jmp	.LBB0_1528
.LBB0_639:                              #   in Loop: Header=BB0_52 Depth=6
                                        # kill: def $bx killed $bx killed $ebx def $rbx
	movl	32(%rsp), %r12d                 # 4-byte Reload
                                        # kill: def $r12w killed $r12w killed $r12d def $r12d
	movl	%r13d, %esi
	movzwl	8(%rsp), %eax                   # 2-byte Folded Reload
	movl	%eax, %r13d
	movq	%rcx, %r14
	jmp	.LBB0_1529
.LBB0_640:                              #   in Loop: Header=BB0_52 Depth=6
                                        # kill: def $bx killed $bx killed $ebx def $rbx
	movl	32(%rsp), %r12d                 # 4-byte Reload
                                        # kill: def $r12w killed $r12w killed $r12d def $r12d
	movl	%r13d, %esi
	movl	%r10d, %eax
	movzwl	8(%rsp), %edx                   # 2-byte Folded Reload
	movl	%edx, %r13d
	movq	%rcx, %r14
	jmp	.LBB0_1530
.LBB0_641:                              #   in Loop: Header=BB0_52 Depth=6
                                        # kill: def $bx killed $bx killed $ebx def $rbx
	movl	32(%rsp), %r12d                 # 4-byte Reload
                                        # kill: def $r12w killed $r12w killed $r12d def $r12d
	movl	%r13d, %esi
	movzwl	8(%rsp), %eax                   # 2-byte Folded Reload
	movl	%eax, %r13d
	movq	%rcx, %r14
	jmp	.LBB0_1531
.LBB0_642:                              #   in Loop: Header=BB0_52 Depth=6
                                        # kill: def $bx killed $bx killed $ebx def $rbx
	movl	32(%rsp), %r12d                 # 4-byte Reload
                                        # kill: def $r12w killed $r12w killed $r12d def $r12d
	movl	%r13d, %esi
	movzwl	8(%rsp), %eax                   # 2-byte Folded Reload
	movl	%eax, %r13d
	movq	%rcx, %r14
	jmp	.LBB0_1532
.LBB0_643:                              #   in Loop: Header=BB0_52 Depth=6
                                        # kill: def $bx killed $bx killed $ebx def $rbx
	movl	32(%rsp), %r12d                 # 4-byte Reload
                                        # kill: def $r12w killed $r12w killed $r12d def $r12d
	movl	%r13d, %esi
	movzwl	8(%rsp), %eax                   # 2-byte Folded Reload
	movl	%eax, %r13d
	movq	%rcx, %r14
	jmp	.LBB0_1533
.LBB0_644:                              #   in Loop: Header=BB0_52 Depth=6
                                        # kill: def $bx killed $bx killed $ebx def $rbx
	movl	32(%rsp), %r12d                 # 4-byte Reload
                                        # kill: def $r12w killed $r12w killed $r12d def $r12d
	movl	%r13d, %esi
	movzwl	8(%rsp), %eax                   # 2-byte Folded Reload
	movl	%eax, %r13d
	movq	%rcx, %r14
	jmp	.LBB0_1534
.LBB0_645:                              #   in Loop: Header=BB0_52 Depth=6
                                        # kill: def $bx killed $bx killed $ebx def $rbx
	movl	32(%rsp), %r12d                 # 4-byte Reload
                                        # kill: def $r12w killed $r12w killed $r12d def $r12d
	movzwl	8(%rsp), %eax                   # 2-byte Folded Reload
	movl	%eax, %r13d
	movq	%rcx, %r14
	jmp	.LBB0_1535
.LBB0_646:                              #   in Loop: Header=BB0_52 Depth=6
                                        # kill: def $bx killed $bx killed $ebx def $rbx
	movl	32(%rsp), %r12d                 # 4-byte Reload
                                        # kill: def $r12w killed $r12w killed $r12d def $r12d
	movl	%r13d, %ebp
	movzwl	8(%rsp), %eax                   # 2-byte Folded Reload
	movl	%eax, %r13d
	movq	%rcx, %r14
	jmp	.LBB0_1536
.LBB0_647:                              #   in Loop: Header=BB0_52 Depth=6
                                        # kill: def $bx killed $bx killed $ebx def $rbx
	movl	32(%rsp), %r12d                 # 4-byte Reload
                                        # kill: def $r12w killed $r12w killed $r12d def $r12d
	movl	%r13d, %ebp
	movzwl	8(%rsp), %eax                   # 2-byte Folded Reload
	movl	%eax, %r13d
	movq	%rcx, %r14
	jmp	.LBB0_1537
.LBB0_648:                              #   in Loop: Header=BB0_52 Depth=6
                                        # kill: def $bx killed $bx killed $ebx def $rbx
	movl	32(%rsp), %r12d                 # 4-byte Reload
                                        # kill: def $r12w killed $r12w killed $r12d def $r12d
	movl	%r13d, %ebp
	movzwl	8(%rsp), %eax                   # 2-byte Folded Reload
	movl	%eax, %r13d
	movq	%rcx, %r14
	jmp	.LBB0_1538
.LBB0_649:                              #   in Loop: Header=BB0_52 Depth=6
                                        # kill: def $bx killed $bx killed $ebx def $rbx
	movl	32(%rsp), %r12d                 # 4-byte Reload
                                        # kill: def $r12w killed $r12w killed $r12d def $r12d
	movl	%r13d, %ebp
	movzwl	8(%rsp), %eax                   # 2-byte Folded Reload
	movl	%eax, %r13d
	movq	%rcx, %r14
	jmp	.LBB0_1539
.LBB0_650:                              #   in Loop: Header=BB0_52 Depth=6
                                        # kill: def $bx killed $bx killed $ebx def $rbx
	movl	32(%rsp), %r12d                 # 4-byte Reload
                                        # kill: def $r12w killed $r12w killed $r12d def $r12d
	movl	%r13d, %ebp
	movzwl	8(%rsp), %eax                   # 2-byte Folded Reload
	movl	%eax, %r13d
	movq	%rcx, %r14
	jmp	.LBB0_1540
.LBB0_651:                              #   in Loop: Header=BB0_52 Depth=6
                                        # kill: def $bx killed $bx killed $ebx def $rbx
	movl	32(%rsp), %r12d                 # 4-byte Reload
                                        # kill: def $r12w killed $r12w killed $r12d def $r12d
	movl	%r13d, %ebp
	movzwl	8(%rsp), %eax                   # 2-byte Folded Reload
	movl	%eax, %r13d
	movq	%rcx, %r14
	jmp	.LBB0_1541
.LBB0_652:                              #   in Loop: Header=BB0_52 Depth=6
                                        # kill: def $bx killed $bx killed $ebx def $rbx
	movl	32(%rsp), %r12d                 # 4-byte Reload
                                        # kill: def $r12w killed $r12w killed $r12d def $r12d
	movl	%r13d, %ebp
	movzwl	8(%rsp), %eax                   # 2-byte Folded Reload
	movl	%eax, %r13d
	movq	%rcx, %r14
	jmp	.LBB0_1542
.LBB0_653:                              #   in Loop: Header=BB0_52 Depth=6
                                        # kill: def $bx killed $bx killed $ebx def $rbx
	movl	32(%rsp), %r12d                 # 4-byte Reload
                                        # kill: def $r12w killed $r12w killed $r12d def $r12d
	movl	%r13d, %ebp
	movzwl	8(%rsp), %eax                   # 2-byte Folded Reload
	movl	%eax, %r13d
	movq	%rcx, %r14
	jmp	.LBB0_1543
.LBB0_654:                              #   in Loop: Header=BB0_52 Depth=6
                                        # kill: def $bx killed $bx killed $ebx def $rbx
	movl	32(%rsp), %r12d                 # 4-byte Reload
                                        # kill: def $r12w killed $r12w killed $r12d def $r12d
	movl	%r13d, %ebp
	movzwl	8(%rsp), %eax                   # 2-byte Folded Reload
	movl	%eax, %r13d
	movq	%rcx, %r14
	jmp	.LBB0_1544
.LBB0_655:                              #   in Loop: Header=BB0_52 Depth=6
                                        # kill: def $bx killed $bx killed $ebx def $rbx
	movl	32(%rsp), %r12d                 # 4-byte Reload
                                        # kill: def $r12w killed $r12w killed $r12d def $r12d
	movl	%r13d, %ebp
	movzwl	8(%rsp), %eax                   # 2-byte Folded Reload
	movl	%eax, %r13d
	movq	%rcx, %r14
	jmp	.LBB0_1545
.LBB0_656:                              #   in Loop: Header=BB0_52 Depth=6
                                        # kill: def $bx killed $bx killed $ebx def $rbx
	movl	32(%rsp), %r12d                 # 4-byte Reload
                                        # kill: def $r12w killed $r12w killed $r12d def $r12d
	movl	%r13d, %ebp
	movzwl	8(%rsp), %eax                   # 2-byte Folded Reload
	movl	%eax, %r13d
	movq	%rcx, %r14
	jmp	.LBB0_1546
.LBB0_657:                              #   in Loop: Header=BB0_52 Depth=6
	movl	%r10d, %r15d
                                        # kill: def $bx killed $bx killed $ebx def $rbx
	movl	32(%rsp), %r12d                 # 4-byte Reload
                                        # kill: def $r12w killed $r12w killed $r12d def $r12d
	movzwl	8(%rsp), %eax                   # 2-byte Folded Reload
	movl	%eax, %r13d
	movq	%rcx, %r14
	jmp	.LBB0_1547
.LBB0_658:                              #   in Loop: Header=BB0_52 Depth=6
                                        # kill: def $bx killed $bx killed $ebx def $rbx
	movl	32(%rsp), %r12d                 # 4-byte Reload
                                        # kill: def $r12w killed $r12w killed $r12d def $r12d
	movzwl	8(%rsp), %eax                   # 2-byte Folded Reload
	movl	%eax, %r13d
	movq	%rcx, %r14
	jmp	.LBB0_1548
.LBB0_659:                              #   in Loop: Header=BB0_52 Depth=6
                                        # kill: def $bx killed $bx killed $ebx def $rbx
	movl	32(%rsp), %r12d                 # 4-byte Reload
                                        # kill: def $r12w killed $r12w killed $r12d def $r12d
	movzwl	8(%rsp), %eax                   # 2-byte Folded Reload
	movl	%eax, %r13d
	movq	%rcx, %r14
	jmp	.LBB0_1549
.LBB0_660:                              #   in Loop: Header=BB0_52 Depth=6
                                        # kill: def $bx killed $bx killed $ebx def $rbx
	movl	32(%rsp), %r12d                 # 4-byte Reload
                                        # kill: def $r12w killed $r12w killed $r12d def $r12d
	movzwl	8(%rsp), %eax                   # 2-byte Folded Reload
	movl	%eax, %r13d
	movq	%rcx, %r14
	jmp	.LBB0_1550
.LBB0_661:                              #   in Loop: Header=BB0_52 Depth=6
                                        # kill: def $bx killed $bx killed $ebx def $rbx
	movl	%r13d, %r12d
	movzwl	8(%rsp), %eax                   # 2-byte Folded Reload
	movl	%eax, %r13d
	movq	%rcx, %r14
	jmp	.LBB0_1551
.LBB0_662:                              #   in Loop: Header=BB0_52 Depth=6
                                        # kill: def $bx killed $bx killed $ebx def $rbx
	movl	32(%rsp), %r12d                 # 4-byte Reload
                                        # kill: def $r12w killed $r12w killed $r12d def $r12d
	movl	%r13d, %esi
	movzwl	8(%rsp), %eax                   # 2-byte Folded Reload
	movl	%eax, %r13d
	movq	%rcx, %r14
	jmp	.LBB0_1552
.LBB0_663:                              #   in Loop: Header=BB0_52 Depth=6
                                        # kill: def $bx killed $bx killed $ebx def $rbx
	movl	32(%rsp), %r12d                 # 4-byte Reload
                                        # kill: def $r12w killed $r12w killed $r12d def $r12d
	movl	%r13d, %esi
	movzwl	8(%rsp), %eax                   # 2-byte Folded Reload
	movl	%eax, %r13d
	movq	%rcx, %r14
	jmp	.LBB0_1553
.LBB0_664:                              #   in Loop: Header=BB0_52 Depth=6
                                        # kill: def $bx killed $bx killed $ebx def $rbx
	movl	32(%rsp), %r12d                 # 4-byte Reload
                                        # kill: def $r12w killed $r12w killed $r12d def $r12d
	movl	%r13d, %esi
	movzwl	8(%rsp), %eax                   # 2-byte Folded Reload
	movl	%eax, %r13d
	movq	%rcx, %r14
	jmp	.LBB0_1554
.LBB0_665:                              #   in Loop: Header=BB0_52 Depth=6
                                        # kill: def $bx killed $bx killed $ebx def $rbx
	movl	32(%rsp), %r12d                 # 4-byte Reload
                                        # kill: def $r12w killed $r12w killed $r12d def $r12d
	movl	%r13d, %esi
	movzwl	8(%rsp), %eax                   # 2-byte Folded Reload
	movl	%eax, %r13d
	movq	%rcx, %r14
	jmp	.LBB0_1556
.LBB0_666:                              #   in Loop: Header=BB0_52 Depth=6
                                        # kill: def $bx killed $bx killed $ebx def $rbx
	movl	32(%rsp), %r12d                 # 4-byte Reload
                                        # kill: def $r12w killed $r12w killed $r12d def $r12d
	movl	%r13d, %esi
	movzwl	8(%rsp), %eax                   # 2-byte Folded Reload
	movl	%eax, %r13d
	movq	%rcx, %r14
	jmp	.LBB0_1557
.LBB0_667:                              # %inst_663
                                        #   in Loop: Header=BB0_52 Depth=6
	addq	$2, %r14
	movl	%r13d, %eax
	addl	$87, %eax
	jmp	.LBB0_669
.LBB0_668:                              #   in Loop: Header=BB0_52 Depth=6
	movl	%r13d, %eax
	movq	%rcx, %r14
.LBB0_669:                              # %inst_664
                                        #   in Loop: Header=BB0_52 Depth=6
	incq	%r14
	movzwl	%ax, %ecx
	movzwl	68(%rsp,%rcx,2), %ecx
	movl	%ecx, %edi
	movq	56(%rsp), %rcx                  # 8-byte Reload
	jmp	.LBB0_671
.LBB0_670:                              #   in Loop: Header=BB0_52 Depth=6
	movl	%r13d, %eax
	movq	%rcx, %r14
	movq	56(%rsp), %rcx                  # 8-byte Reload
	movl	16(%rsp), %edi                  # 4-byte Reload
.LBB0_671:                              # %inst_665
                                        #   in Loop: Header=BB0_52 Depth=6
	incq	%r14
	movzwl	%cx, %ecx
	movzwl	68(%rsp,%rcx,2), %edx
	jmp	.LBB0_673
.LBB0_672:                              #   in Loop: Header=BB0_52 Depth=6
	movl	%ebx, %edx
	movl	%r13d, %eax
	movq	%rcx, %r14
	movl	16(%rsp), %edi                  # 4-byte Reload
.LBB0_673:                              # %inst_666
                                        #   in Loop: Header=BB0_52 Depth=6
	movl	%edi, %ecx
	incq	%r14
	leal	1(%rdx), %esi
	movzwl	%si, %esi
	movw	%di, 68(%rsp,%rsi,2)
	jmp	.LBB0_675
.LBB0_674:                              #   in Loop: Header=BB0_52 Depth=6
	movl	%ebx, %edx
	movl	%r13d, %eax
	movq	%rcx, %r14
	movl	16(%rsp), %edi                  # 4-byte Reload
.LBB0_675:                              # %inst_667
                                        #   in Loop: Header=BB0_52 Depth=6
	movl	%edi, %ecx
	incq	%r14
	decl	%ecx
                                        # kill: def $cx killed $cx killed $ecx def $ecx
	movl	%ecx, 16(%rsp)                  # 4-byte Spill
	movl	%eax, %r13d
.LBB0_676:                              # %inst_668
                                        #   in Loop: Header=BB0_52 Depth=6
	movzwl	8(%rsp), %ecx                   # 2-byte Folded Reload
	movzwl	%cx, %eax
                                        # kill: def $cx killed $cx def $rcx
	incl	%ecx
	movzwl	68(%rsp,%rax,2), %edi
	movl	%edx, %ebx
	jmp	.LBB0_1596
.LBB0_677:                              #   in Loop: Header=BB0_52 Depth=6
	movl	%ebx, %edx
	movq	%rcx, %r14
	jmp	.LBB0_676
.LBB0_678:                              # %inst_677
                                        #   in Loop: Header=BB0_52 Depth=6
	addq	$2, %r14
	movzwl	274(%rsp), %edx
	jmp	.LBB0_680
.LBB0_679:                              #   in Loop: Header=BB0_52 Depth=6
	movl	%r13d, %edx
	movq	%rcx, %r14
.LBB0_680:                              # %inst_678
                                        #   in Loop: Header=BB0_52 Depth=6
	incq	%r14
	movzwl	234(%rsp), %eax
                                        # kill: def $ax killed $ax def $eax
	movl	%eax, 24(%rsp)                  # 4-byte Spill
	jmp	.LBB0_682
.LBB0_681:                              #   in Loop: Header=BB0_52 Depth=6
	movl	%r13d, %edx
	movq	%rcx, %r14
.LBB0_682:                              # %inst_679
                                        #   in Loop: Header=BB0_52 Depth=6
	movl	16(%rsp), %edi                  # 4-byte Reload
	movl	24(%rsp), %r13d                 # 4-byte Reload
                                        # kill: def $r13w killed $r13w killed $r13d def $r13d
	incq	%r14
	incl	%r13d
                                        # kill: def $r13w killed $r13w killed $r13d def $r13d
	movl	%r13d, 24(%rsp)                 # 4-byte Spill
	jmp	.LBB0_684
.LBB0_683:                              #   in Loop: Header=BB0_52 Depth=6
	movl	%r13d, %edx
	movq	%rcx, %r14
	movl	16(%rsp), %edi                  # 4-byte Reload
.LBB0_684:                              # %inst_680
                                        #   in Loop: Header=BB0_52 Depth=6
	movl	24(%rsp), %eax                  # 4-byte Reload
                                        # kill: def $ax killed $ax killed $eax
	incq	%r14
	movw	%ax, 234(%rsp)
                                        # kill: def $ax killed $ax def $eax
	movl	%eax, 24(%rsp)                  # 4-byte Spill
	jmp	.LBB0_686
.LBB0_685:                              #   in Loop: Header=BB0_52 Depth=6
	movl	%r13d, %edx
	movq	%rcx, %r14
	movl	16(%rsp), %edi                  # 4-byte Reload
.LBB0_686:                              # %inst_681
                                        #   in Loop: Header=BB0_52 Depth=6
	movl	24(%rsp), %eax                  # 4-byte Reload
                                        # kill: def $ax killed $ax killed $eax
	incq	%r14
	movzwl	%ax, %ecx
	movw	%dx, 68(%rsp,%rcx,2)
                                        # kill: def $ax killed $ax def $eax
	movl	%eax, 24(%rsp)                  # 4-byte Spill
.LBB0_687:                              # %inst_682
                                        #   in Loop: Header=BB0_52 Depth=6
	movl	24(%rsp), %eax                  # 4-byte Reload
                                        # kill: def $ax killed $ax killed $eax
	incq	%r14
	movzwl	236(%rsp), %ecx
	movl	%ecx, %r10d
                                        # kill: def $ax killed $ax def $eax
	movl	%eax, 24(%rsp)                  # 4-byte Spill
.LBB0_688:                              # %inst_683
                                        #   in Loop: Header=BB0_52 Depth=6
	movl	24(%rsp), %eax                  # 4-byte Reload
                                        # kill: def $ax killed $ax killed $eax
	movl	%r10d, %ecx
	incq	%r14
	decl	%ecx
	movl	%ecx, %r10d
                                        # kill: def $ax killed $ax def $eax
	movl	%eax, 24(%rsp)                  # 4-byte Spill
.LBB0_689:                              # %inst_684
                                        #   in Loop: Header=BB0_52 Depth=6
	movl	24(%rsp), %eax                  # 4-byte Reload
                                        # kill: def $ax killed $ax killed $eax
	movl	%r10d, %ecx
	incq	%r14
	movzwl	%dx, %esi
	movw	%r10w, 68(%rsp,%rsi,2)
                                        # kill: def $ax killed $ax def $eax
	movl	%eax, 24(%rsp)                  # 4-byte Spill
.LBB0_690:                              # %inst_685
                                        #   in Loop: Header=BB0_52 Depth=6
	movl	24(%rsp), %eax                  # 4-byte Reload
                                        # kill: def $ax killed $ax killed $eax
	incq	%r14
	incl	%edx
                                        # kill: def $ax killed $ax def $eax
	movl	%eax, 24(%rsp)                  # 4-byte Spill
.LBB0_691:                              # %inst_686
                                        #   in Loop: Header=BB0_52 Depth=6
	movl	24(%rsp), %eax                  # 4-byte Reload
                                        # kill: def $ax killed $ax killed $eax
	incq	%r14
	movzwl	56(%rsp), %ecx                  # 2-byte Folded Reload
	movzwl	68(%rsp,%rcx,2), %ebp
                                        # kill: def $ax killed $ax def $eax
	movl	%eax, 24(%rsp)                  # 4-byte Spill
.LBB0_692:                              # %inst_687
                                        #   in Loop: Header=BB0_52 Depth=6
	movl	24(%rsp), %eax                  # 4-byte Reload
                                        # kill: def $ax killed $ax killed $eax
	incq	%r14
	incl	%ebp
                                        # kill: def $ax killed $ax def $eax
	movl	%eax, 24(%rsp)                  # 4-byte Spill
.LBB0_693:                              # %inst_688
                                        #   in Loop: Header=BB0_52 Depth=6
	movl	24(%rsp), %eax                  # 4-byte Reload
                                        # kill: def $ax killed $ax killed $eax
	incq	%r14
	movzwl	%bp, %ecx
	movzwl	68(%rsp,%rcx,2), %ecx
	movzwl	%dx, %esi
	movw	%cx, 68(%rsp,%rsi,2)
                                        # kill: def $ax killed $ax def $eax
	movl	%eax, 24(%rsp)                  # 4-byte Spill
.LBB0_694:                              # %inst_689
                                        #   in Loop: Header=BB0_52 Depth=6
	movl	24(%rsp), %eax                  # 4-byte Reload
                                        # kill: def $ax killed $ax killed $eax
	incq	%r14
	incl	%edx
                                        # kill: def $ax killed $ax def $eax
	movl	%eax, 24(%rsp)                  # 4-byte Spill
.LBB0_695:                              # %inst_690
                                        #   in Loop: Header=BB0_52 Depth=6
	movl	24(%rsp), %eax                  # 4-byte Reload
                                        # kill: def $ax killed $ax killed $eax
	incq	%r14
	movzwl	%dx, %ecx
	movw	$0, 68(%rsp,%rcx,2)
                                        # kill: def $ax killed $ax def $eax
	movl	%eax, 24(%rsp)                  # 4-byte Spill
.LBB0_696:                              # %inst_691
                                        #   in Loop: Header=BB0_52 Depth=6
	movl	24(%rsp), %eax                  # 4-byte Reload
                                        # kill: def $ax killed $ax killed $eax
	incq	%r14
	incl	%edx
                                        # kill: def $ax killed $ax def $eax
	movl	%eax, 24(%rsp)                  # 4-byte Spill
.LBB0_697:                              # %inst_692
                                        #   in Loop: Header=BB0_52 Depth=6
	movl	24(%rsp), %eax                  # 4-byte Reload
                                        # kill: def $ax killed $ax killed $eax
	incq	%r14
	movzwl	%dx, %ecx
	movw	%di, 68(%rsp,%rcx,2)
                                        # kill: def $ax killed $ax def $eax
	movl	%eax, 24(%rsp)                  # 4-byte Spill
.LBB0_698:                              # %inst_693
                                        #   in Loop: Header=BB0_52 Depth=6
	movl	24(%rsp), %eax                  # 4-byte Reload
                                        # kill: def $ax killed $ax killed $eax
	incq	%r14
	incl	%edx
                                        # kill: def $ax killed $ax def $eax
	movl	%eax, 24(%rsp)                  # 4-byte Spill
.LBB0_699:                              # %inst_694
                                        #   in Loop: Header=BB0_52 Depth=6
	movl	24(%rsp), %eax                  # 4-byte Reload
                                        # kill: def $ax killed $ax killed $eax
	incq	%r14
	addl	$3, %ebp
                                        # kill: def $ax killed $ax def $eax
	movl	%eax, 24(%rsp)                  # 4-byte Spill
.LBB0_700:                              # %inst_695
                                        #   in Loop: Header=BB0_52 Depth=6
	movl	24(%rsp), %eax                  # 4-byte Reload
                                        # kill: def $ax killed $ax killed $eax
	incq	%r14
	movzwl	%bp, %ecx
	movzwl	68(%rsp,%rcx,2), %ecx
	movzwl	%dx, %esi
	movw	%cx, 68(%rsp,%rsi,2)
                                        # kill: def $ax killed $ax def $eax
	movl	%eax, 24(%rsp)                  # 4-byte Spill
.LBB0_701:                              # %inst_696
                                        #   in Loop: Header=BB0_52 Depth=6
	movl	24(%rsp), %eax                  # 4-byte Reload
                                        # kill: def $ax killed $ax killed $eax
	incq	%r14
	incl	%ebp
                                        # kill: def $ax killed $ax def $eax
	movl	%eax, 24(%rsp)                  # 4-byte Spill
.LBB0_702:                              # %inst_697
                                        #   in Loop: Header=BB0_52 Depth=6
	movl	24(%rsp), %eax                  # 4-byte Reload
                                        # kill: def $ax killed $ax killed $eax
	incq	%r14
	incl	%edx
                                        # kill: def $ax killed $ax def $eax
	movl	%eax, 24(%rsp)                  # 4-byte Spill
.LBB0_703:                              # %inst_698
                                        #   in Loop: Header=BB0_52 Depth=6
	movl	24(%rsp), %eax                  # 4-byte Reload
                                        # kill: def $ax killed $ax killed $eax
	incq	%r14
	movzwl	%bp, %ecx
	movzwl	68(%rsp,%rcx,2), %ecx
	movl	%ecx, %r10d
                                        # kill: def $ax killed $ax def $eax
	movl	%eax, 24(%rsp)                  # 4-byte Spill
.LBB0_704:                              # %inst_699
                                        #   in Loop: Header=BB0_52 Depth=6
	movl	24(%rsp), %eax                  # 4-byte Reload
	movl	%eax, %ecx
	movl	%r10d, %esi
	incq	%r14
	movzwl	8(%rsp), %eax                   # 2-byte Folded Reload
                                        # kill: def $ax killed $ax def $rax
	decl	%eax
	movzwl	%ax, %edi
	movw	%r10w, 68(%rsp,%rdi,2)
                                        # kill: def $cx killed $cx def $ecx
	movl	%ecx, 24(%rsp)                  # 4-byte Spill
.LBB0_705:                              # %inst_700
                                        #   in Loop: Header=BB0_52 Depth=6
	movl	24(%rsp), %ecx                  # 4-byte Reload
                                        # kill: def $cx killed $cx killed $ecx
	incq	%r14
	movzwl	%dx, %esi
	movw	$0, 68(%rsp,%rsi,2)
                                        # kill: def $cx killed $cx def $ecx
	movl	%ecx, 24(%rsp)                  # 4-byte Spill
.LBB0_706:                              # %inst_701
                                        #   in Loop: Header=BB0_52 Depth=6
	movl	24(%rsp), %ecx                  # 4-byte Reload
                                        # kill: def $cx killed $cx killed $ecx
	incq	%r14
	decl	%eax
	movzwl	%ax, %esi
	movw	$0, 68(%rsp,%rsi,2)
                                        # kill: def $cx killed $cx def $ecx
	movl	%ecx, 24(%rsp)                  # 4-byte Spill
.LBB0_707:                              # %inst_702
                                        #   in Loop: Header=BB0_52 Depth=6
	movl	24(%rsp), %r12d                 # 4-byte Reload
                                        # kill: def $r12w killed $r12w killed $r12d def $r12d
	movl	%r10d, %r15d
	incq	%r14
	testw	%r10w, %r10w
	je	.LBB0_1565
	jmp	.LBB0_2326
.LBB0_708:                              #   in Loop: Header=BB0_52 Depth=6
	movl	%r13d, %edx
	movq	%rcx, %r14
	movl	16(%rsp), %edi                  # 4-byte Reload
	jmp	.LBB0_687
.LBB0_709:                              #   in Loop: Header=BB0_52 Depth=6
	movl	%r13d, %edx
	movq	%rcx, %r14
	movl	16(%rsp), %edi                  # 4-byte Reload
	jmp	.LBB0_688
.LBB0_710:                              #   in Loop: Header=BB0_52 Depth=6
	movl	%r13d, %edx
	movq	%rcx, %r14
	movl	16(%rsp), %edi                  # 4-byte Reload
	jmp	.LBB0_689
.LBB0_711:                              #   in Loop: Header=BB0_52 Depth=6
	movl	%r13d, %edx
	movq	%rcx, %r14
	movl	16(%rsp), %edi                  # 4-byte Reload
	jmp	.LBB0_690
.LBB0_712:                              #   in Loop: Header=BB0_52 Depth=6
	movl	%r13d, %edx
	movq	%rcx, %r14
	movl	16(%rsp), %edi                  # 4-byte Reload
	jmp	.LBB0_691
.LBB0_713:                              #   in Loop: Header=BB0_52 Depth=6
	movl	%ebx, %ebp
	movl	%r13d, %edx
	movq	%rcx, %r14
	movl	16(%rsp), %edi                  # 4-byte Reload
	jmp	.LBB0_692
.LBB0_714:                              #   in Loop: Header=BB0_52 Depth=6
	movl	%ebx, %ebp
	movl	%r13d, %edx
	movq	%rcx, %r14
	movl	16(%rsp), %edi                  # 4-byte Reload
	jmp	.LBB0_693
.LBB0_715:                              #   in Loop: Header=BB0_52 Depth=6
	movl	%ebx, %ebp
	movl	%r13d, %edx
	movq	%rcx, %r14
	movl	16(%rsp), %edi                  # 4-byte Reload
	jmp	.LBB0_694
.LBB0_716:                              #   in Loop: Header=BB0_52 Depth=6
	movl	%ebx, %ebp
	movl	%r13d, %edx
	movq	%rcx, %r14
	movl	16(%rsp), %edi                  # 4-byte Reload
	jmp	.LBB0_695
.LBB0_717:                              #   in Loop: Header=BB0_52 Depth=6
	movl	%ebx, %ebp
	movl	%r13d, %edx
	movq	%rcx, %r14
	movl	16(%rsp), %edi                  # 4-byte Reload
	jmp	.LBB0_696
.LBB0_718:                              #   in Loop: Header=BB0_52 Depth=6
	movl	%ebx, %ebp
	movl	%r13d, %edx
	movq	%rcx, %r14
	movl	16(%rsp), %edi                  # 4-byte Reload
	jmp	.LBB0_697
.LBB0_719:                              #   in Loop: Header=BB0_52 Depth=6
	movl	%ebx, %ebp
	movl	%r13d, %edx
	movq	%rcx, %r14
	jmp	.LBB0_698
.LBB0_720:                              #   in Loop: Header=BB0_52 Depth=6
	movl	%ebx, %ebp
	movl	%r13d, %edx
	movq	%rcx, %r14
	jmp	.LBB0_699
.LBB0_721:                              #   in Loop: Header=BB0_52 Depth=6
	movl	%ebx, %ebp
	movl	%r13d, %edx
	movq	%rcx, %r14
	jmp	.LBB0_700
.LBB0_722:                              #   in Loop: Header=BB0_52 Depth=6
	movl	%ebx, %ebp
	movl	%r13d, %edx
	movq	%rcx, %r14
	jmp	.LBB0_701
.LBB0_723:                              #   in Loop: Header=BB0_52 Depth=6
	movl	%ebx, %ebp
	movl	%r13d, %edx
	movq	%rcx, %r14
	jmp	.LBB0_702
.LBB0_724:                              #   in Loop: Header=BB0_52 Depth=6
	movl	%ebx, %ebp
	movl	%r13d, %edx
	movq	%rcx, %r14
	jmp	.LBB0_703
.LBB0_725:                              #   in Loop: Header=BB0_52 Depth=6
	movl	%ebx, %ebp
	movl	%r13d, %edx
	movq	%rcx, %r14
	jmp	.LBB0_704
.LBB0_726:                              #   in Loop: Header=BB0_52 Depth=6
	movl	%ebx, %ebp
	movl	%r13d, %edx
	movzwl	8(%rsp), %eax                   # 2-byte Folded Reload
                                        # kill: def $ax killed $ax def $rax
	movq	%rcx, %r14
	jmp	.LBB0_705
.LBB0_727:                              #   in Loop: Header=BB0_52 Depth=6
	movl	%ebx, %ebp
	movl	%r13d, %edx
	movzwl	8(%rsp), %eax                   # 2-byte Folded Reload
                                        # kill: def $ax killed $ax def $rax
	movq	%rcx, %r14
	jmp	.LBB0_706
.LBB0_728:                              #   in Loop: Header=BB0_52 Depth=6
	movl	%ebx, %ebp
	movl	%r13d, %edx
	movzwl	8(%rsp), %eax                   # 2-byte Folded Reload
                                        # kill: def $ax killed $ax def $rax
	movq	%rcx, %r14
	jmp	.LBB0_707
.LBB0_729:                              # %inst_709
                                        #   in Loop: Header=BB0_52 Depth=6
	addq	$2, %r14
	movzwl	274(%rsp), %esi
	jmp	.LBB0_731
.LBB0_730:                              #   in Loop: Header=BB0_52 Depth=6
	movl	32(%rsp), %esi                  # 4-byte Reload
                                        # kill: def $si killed $si killed $esi def $esi
	movq	%rcx, %r14
.LBB0_731:                              # %inst_710
                                        #   in Loop: Header=BB0_52 Depth=6
	incq	%r14
	movzwl	8(%rsp), %ecx                   # 2-byte Folded Reload
	movl	%ecx, %eax
	incl	%eax
	movzwl	%cx, %ecx
	movzwl	68(%rsp,%rcx,2), %ecx
	movl	%ecx, %r10d
	jmp	.LBB0_733
.LBB0_732:                              #   in Loop: Header=BB0_52 Depth=6
	movl	32(%rsp), %esi                  # 4-byte Reload
                                        # kill: def $si killed $si killed $esi def $esi
	movzwl	8(%rsp), %eax                   # 2-byte Folded Reload
                                        # kill: def $ax killed $ax def $rax
	movq	%rcx, %r14
.LBB0_733:                              # %inst_711
                                        #   in Loop: Header=BB0_52 Depth=6
	incq	%r14
	leal	1(%rax), %edx
	movzwl	%ax, %eax
	movzwl	68(%rsp,%rax,2), %ebp
	jmp	.LBB0_735
.LBB0_734:                              #   in Loop: Header=BB0_52 Depth=6
	movl	%ebx, %ebp
	movl	32(%rsp), %esi                  # 4-byte Reload
                                        # kill: def $si killed $si killed $esi def $esi
	movzwl	8(%rsp), %eax                   # 2-byte Folded Reload
	movl	%eax, %edx
	movq	%rcx, %r14
.LBB0_735:                              # %inst_712
                                        #   in Loop: Header=BB0_52 Depth=6
	incq	%r14
	leal	1(%rdx), %eax
	movzwl	%dx, %ecx
	movzwl	68(%rsp,%rcx,2), %edx
	jmp	.LBB0_737
.LBB0_736:                              #   in Loop: Header=BB0_52 Depth=6
	movl	%ebx, %ebp
	movl	32(%rsp), %esi                  # 4-byte Reload
                                        # kill: def $si killed $si killed $esi def $esi
	movl	%r13d, %edx
	movzwl	8(%rsp), %eax                   # 2-byte Folded Reload
                                        # kill: def $ax killed $ax def $rax
	movq	%rcx, %r14
.LBB0_737:                              # %inst_713
                                        #   in Loop: Header=BB0_52 Depth=6
	incq	%r14
	decl	%esi
.LBB0_738:                              # %inst_714
                                        #   in Loop: Header=BB0_52 Depth=6
	incq	%r14
	movzwl	%ax, %ecx
	movw	%si, 68(%rsp,%rcx,2)
.LBB0_739:                              # %inst_715
                                        #   in Loop: Header=BB0_52 Depth=6
	incq	%r14
	movzwl	%dx, %ecx
	movw	%si, 68(%rsp,%rcx,2)
.LBB0_740:                              # %inst_716
                                        #   in Loop: Header=BB0_52 Depth=6
	incq	%r14
	movw	$64, %cx
	movl	%ecx, 20(%rsp)                  # 4-byte Spill
	jmp	.LBB0_1560
.LBB0_741:                              #   in Loop: Header=BB0_52 Depth=6
	movl	%ebx, %ebp
	movl	32(%rsp), %esi                  # 4-byte Reload
                                        # kill: def $si killed $si killed $esi def $esi
	movl	%r13d, %edx
	movzwl	8(%rsp), %eax                   # 2-byte Folded Reload
                                        # kill: def $ax killed $ax def $rax
	movq	%rcx, %r14
	jmp	.LBB0_738
.LBB0_742:                              #   in Loop: Header=BB0_52 Depth=6
	movl	%ebx, %ebp
	movl	32(%rsp), %esi                  # 4-byte Reload
                                        # kill: def $si killed $si killed $esi def $esi
	movl	%r13d, %edx
	movzwl	8(%rsp), %eax                   # 2-byte Folded Reload
                                        # kill: def $ax killed $ax def $rax
	movq	%rcx, %r14
	jmp	.LBB0_739
.LBB0_743:                              #   in Loop: Header=BB0_52 Depth=6
	movl	%ebx, %ebp
	movl	32(%rsp), %esi                  # 4-byte Reload
                                        # kill: def $si killed $si killed $esi def $esi
	movl	%r13d, %edx
	movzwl	8(%rsp), %eax                   # 2-byte Folded Reload
                                        # kill: def $ax killed $ax def $rax
	movq	%rcx, %r14
	jmp	.LBB0_740
.LBB0_744:                              #   in Loop: Header=BB0_52 Depth=6
	movl	%ebx, %ebp
	movl	32(%rsp), %esi                  # 4-byte Reload
                                        # kill: def $si killed $si killed $esi def $esi
	movl	%r13d, %edx
	movzwl	8(%rsp), %eax                   # 2-byte Folded Reload
                                        # kill: def $ax killed $ax def $rax
	movq	%rcx, %r14
	jmp	.LBB0_1560
.LBB0_745:                              #   in Loop: Header=BB0_52 Depth=6
	movl	%ebx, %ebp
	movl	32(%rsp), %esi                  # 4-byte Reload
                                        # kill: def $si killed $si killed $esi def $esi
	movl	%r13d, %edx
	movzwl	8(%rsp), %eax                   # 2-byte Folded Reload
                                        # kill: def $ax killed $ax def $rax
	movq	%rcx, %r14
	jmp	.LBB0_1561
.LBB0_746:                              #   in Loop: Header=BB0_52 Depth=6
	movl	%ebx, %ebp
	movl	32(%rsp), %esi                  # 4-byte Reload
                                        # kill: def $si killed $si killed $esi def $esi
	movl	%r13d, %edx
	movzwl	8(%rsp), %eax                   # 2-byte Folded Reload
                                        # kill: def $ax killed $ax def $rax
	movq	%rcx, %r14
	jmp	.LBB0_1562
.LBB0_747:                              #   in Loop: Header=BB0_52 Depth=6
	movl	%ebx, %ebp
	movl	32(%rsp), %esi                  # 4-byte Reload
                                        # kill: def $si killed $si killed $esi def $esi
	movl	%r13d, %edx
	movzwl	8(%rsp), %eax                   # 2-byte Folded Reload
                                        # kill: def $ax killed $ax def $rax
	movq	%rcx, %r14
	jmp	.LBB0_1563
.LBB0_748:                              #   in Loop: Header=BB0_52 Depth=6
	movl	%ebx, %ebp
	movl	32(%rsp), %esi                  # 4-byte Reload
                                        # kill: def $si killed $si killed $esi def $esi
	movl	%r13d, %edx
	movzwl	8(%rsp), %eax                   # 2-byte Folded Reload
                                        # kill: def $ax killed $ax def $rax
	movq	%rcx, %r14
	movl	20(%rsp), %ecx                  # 4-byte Reload
	jmp	.LBB0_1564
.LBB0_749:                              #   in Loop: Header=BB0_52 Depth=6
	movl	%ebx, %ebp
	movl	%r13d, %edx
	movzwl	8(%rsp), %eax                   # 2-byte Folded Reload
                                        # kill: def $ax killed $ax def $rax
	movq	%rcx, %r14
	jmp	.LBB0_1565
.LBB0_750:                              #   in Loop: Header=BB0_52 Depth=6
	movl	%ebx, %ebp
	movl	%r13d, %edx
	movzwl	8(%rsp), %eax                   # 2-byte Folded Reload
                                        # kill: def $ax killed $ax def $rax
	movq	%rcx, %r14
	jmp	.LBB0_1566
.LBB0_751:                              #   in Loop: Header=BB0_52 Depth=6
	movl	%ebx, %ebp
	movl	%r13d, %edx
	movzwl	8(%rsp), %eax                   # 2-byte Folded Reload
                                        # kill: def $ax killed $ax def $rax
	movq	%rcx, %r14
	jmp	.LBB0_1567
.LBB0_752:                              #   in Loop: Header=BB0_52 Depth=6
	movl	%r13d, %edx
	movzwl	8(%rsp), %eax                   # 2-byte Folded Reload
                                        # kill: def $ax killed $ax def $rax
	movq	%rcx, %r14
	jmp	.LBB0_1568
.LBB0_753:                              #   in Loop: Header=BB0_52 Depth=6
	movl	%r13d, %edx
	movzwl	8(%rsp), %eax                   # 2-byte Folded Reload
                                        # kill: def $ax killed $ax def $rax
	movq	%rcx, %r14
	jmp	.LBB0_1569
.LBB0_754:                              #   in Loop: Header=BB0_52 Depth=6
	movl	32(%rsp), %esi                  # 4-byte Reload
                                        # kill: def $si killed $si killed $esi def $esi
	movl	%r13d, %edx
	movzwl	8(%rsp), %eax                   # 2-byte Folded Reload
                                        # kill: def $ax killed $ax def $rax
	movq	%rcx, %r14
	jmp	.LBB0_1570
.LBB0_755:                              #   in Loop: Header=BB0_52 Depth=6
                                        # kill: def $bx killed $bx killed $ebx def $ebx
	movl	32(%rsp), %esi                  # 4-byte Reload
                                        # kill: def $si killed $si killed $esi def $esi
	movl	%r13d, %edx
	movzwl	8(%rsp), %eax                   # 2-byte Folded Reload
                                        # kill: def $ax killed $ax def $rax
	movq	%rcx, %r14
	jmp	.LBB0_1571
.LBB0_756:                              #   in Loop: Header=BB0_52 Depth=6
                                        # kill: def $bx killed $bx killed $ebx def $ebx
	movl	32(%rsp), %esi                  # 4-byte Reload
                                        # kill: def $si killed $si killed $esi def $esi
	movl	%r13d, %edx
	movzwl	8(%rsp), %eax                   # 2-byte Folded Reload
                                        # kill: def $ax killed $ax def $rax
	movq	%rcx, %r14
	movl	20(%rsp), %ecx                  # 4-byte Reload
	jmp	.LBB0_1572
.LBB0_757:                              #   in Loop: Header=BB0_52 Depth=6
                                        # kill: def $bx killed $bx killed $ebx def $ebx
	movl	32(%rsp), %esi                  # 4-byte Reload
                                        # kill: def $si killed $si killed $esi def $esi
	movl	%r13d, %edx
	movzwl	8(%rsp), %eax                   # 2-byte Folded Reload
                                        # kill: def $ax killed $ax def $rax
	movq	%rcx, %r14
	jmp	.LBB0_1573
.LBB0_758:                              #   in Loop: Header=BB0_52 Depth=6
                                        # kill: def $bx killed $bx killed $ebx def $ebx
	movl	32(%rsp), %esi                  # 4-byte Reload
                                        # kill: def $si killed $si killed $esi def $esi
	movl	%r13d, %edx
	movzwl	8(%rsp), %eax                   # 2-byte Folded Reload
                                        # kill: def $ax killed $ax def $rax
	movq	%rcx, %r14
	jmp	.LBB0_1574
.LBB0_759:                              #   in Loop: Header=BB0_52 Depth=6
                                        # kill: def $bx killed $bx killed $ebx def $ebx
	movl	32(%rsp), %esi                  # 4-byte Reload
                                        # kill: def $si killed $si killed $esi def $esi
	movl	%r13d, %edx
	movzwl	8(%rsp), %eax                   # 2-byte Folded Reload
                                        # kill: def $ax killed $ax def $rax
	movq	%rcx, %r14
	jmp	.LBB0_1575
.LBB0_760:                              #   in Loop: Header=BB0_52 Depth=6
                                        # kill: def $bx killed $bx killed $ebx def $ebx
	movl	32(%rsp), %esi                  # 4-byte Reload
                                        # kill: def $si killed $si killed $esi def $esi
	movl	%r13d, %edx
	movzwl	8(%rsp), %eax                   # 2-byte Folded Reload
                                        # kill: def $ax killed $ax def $rax
	movq	%rcx, %r14
	jmp	.LBB0_1576
.LBB0_761:                              #   in Loop: Header=BB0_52 Depth=6
	movl	%r13d, %edx
	movzwl	8(%rsp), %eax                   # 2-byte Folded Reload
                                        # kill: def $ax killed $ax def $rax
	movq	%rcx, %r14
	jmp	.LBB0_1577
.LBB0_762:                              #   in Loop: Header=BB0_52 Depth=6
	movl	32(%rsp), %eax                  # 4-byte Reload
                                        # kill: def $ax killed $ax killed $eax def $eax
	movl	%r13d, %edx
	movzwl	8(%rsp), %esi                   # 2-byte Folded Reload
	movl	%esi, %edi
	movq	%rcx, %r14
	jmp	.LBB0_1578
.LBB0_763:                              #   in Loop: Header=BB0_52 Depth=6
	movl	32(%rsp), %eax                  # 4-byte Reload
                                        # kill: def $ax killed $ax killed $eax def $eax
	movl	%r13d, %edx
	movzwl	8(%rsp), %esi                   # 2-byte Folded Reload
                                        # kill: def $si killed $si def $rsi
	movq	%rcx, %r14
	jmp	.LBB0_1579
.LBB0_764:                              #   in Loop: Header=BB0_52 Depth=6
	movl	32(%rsp), %eax                  # 4-byte Reload
                                        # kill: def $ax killed $ax killed $eax def $eax
	movl	%r13d, %edx
	movzwl	8(%rsp), %esi                   # 2-byte Folded Reload
                                        # kill: def $si killed $si def $rsi
	movq	%rcx, %r14
	jmp	.LBB0_1580
.LBB0_765:                              #   in Loop: Header=BB0_52 Depth=6
	movl	32(%rsp), %eax                  # 4-byte Reload
                                        # kill: def $ax killed $ax killed $eax def $eax
	movl	%r13d, %edx
	movzwl	8(%rsp), %esi                   # 2-byte Folded Reload
                                        # kill: def $si killed $si def $rsi
	movq	%rcx, %r14
	movl	20(%rsp), %ecx                  # 4-byte Reload
	jmp	.LBB0_1581
.LBB0_766:                              #   in Loop: Header=BB0_52 Depth=6
	movl	32(%rsp), %eax                  # 4-byte Reload
                                        # kill: def $ax killed $ax killed $eax def $eax
	movl	%r13d, %edx
	movzwl	8(%rsp), %esi                   # 2-byte Folded Reload
                                        # kill: def $si killed $si def $rsi
	movq	%rcx, %r14
	movl	20(%rsp), %ecx                  # 4-byte Reload
	jmp	.LBB0_1582
.LBB0_767:                              #   in Loop: Header=BB0_52 Depth=6
	movl	32(%rsp), %eax                  # 4-byte Reload
                                        # kill: def $ax killed $ax killed $eax def $eax
	movl	%r13d, %edx
	movzwl	8(%rsp), %esi                   # 2-byte Folded Reload
                                        # kill: def $si killed $si def $rsi
	movq	%rcx, %r14
	jmp	.LBB0_1583
.LBB0_768:                              #   in Loop: Header=BB0_52 Depth=6
	movl	%ebx, %esi
	movl	32(%rsp), %eax                  # 4-byte Reload
                                        # kill: def $ax killed $ax killed $eax def $eax
	movl	%r13d, %edx
	movzwl	8(%rsp), %edi                   # 2-byte Folded Reload
                                        # kill: def $di killed $di def $rdi
	movq	%rcx, %r14
	jmp	.LBB0_1584
.LBB0_769:                              #   in Loop: Header=BB0_52 Depth=6
	movl	%ebx, %esi
	movl	32(%rsp), %eax                  # 4-byte Reload
                                        # kill: def $ax killed $ax killed $eax def $eax
	movl	%r13d, %edx
	movzwl	8(%rsp), %edi                   # 2-byte Folded Reload
                                        # kill: def $di killed $di def $rdi
	movq	%rcx, %r14
	jmp	.LBB0_1585
.LBB0_770:                              #   in Loop: Header=BB0_52 Depth=6
	movl	%ebx, %esi
	movl	32(%rsp), %eax                  # 4-byte Reload
                                        # kill: def $ax killed $ax killed $eax def $eax
	movl	%r13d, %edx
	movzwl	8(%rsp), %edi                   # 2-byte Folded Reload
                                        # kill: def $di killed $di def $rdi
	movq	%rcx, %r14
	jmp	.LBB0_1586
.LBB0_771:                              # %inst_744
                                        #   in Loop: Header=BB0_52 Depth=6
	addq	$2, %r14
	movl	%r13d, %edx
	addl	$87, %edx
	jmp	.LBB0_773
.LBB0_772:                              #   in Loop: Header=BB0_52 Depth=6
	movl	%r13d, %edx
	movq	%rcx, %r14
.LBB0_773:                              # %inst_745
                                        #   in Loop: Header=BB0_52 Depth=6
	incq	%r14
	movzwl	56(%rsp), %eax                  # 2-byte Folded Reload
	movzwl	68(%rsp,%rax,2), %eax
	jmp	.LBB0_775
.LBB0_774:                              #   in Loop: Header=BB0_52 Depth=6
	movl	%ebx, %eax
	movl	%r13d, %edx
	movq	%rcx, %r14
.LBB0_775:                              # %inst_746
                                        #   in Loop: Header=BB0_52 Depth=6
	incq	%r14
	movzwl	%ax, %ecx
	movzwl	68(%rsp,%rcx,2), %ecx
	movzwl	%dx, %esi
	movw	%cx, 68(%rsp,%rsi,2)
	movl	%edx, %r13d
	jmp	.LBB0_1107
.LBB0_776:                              # %inst_748
                                        #   in Loop: Header=BB0_52 Depth=6
	addq	$2, %r14
	movl	%r13d, %eax
	addl	$87, %eax
	jmp	.LBB0_778
.LBB0_777:                              #   in Loop: Header=BB0_52 Depth=6
	movl	%r13d, %eax
	movq	%rcx, %r14
.LBB0_778:                              # %inst_749
                                        #   in Loop: Header=BB0_52 Depth=6
	incq	%r14
	movzwl	%ax, %eax
	movzwl	68(%rsp,%rax,2), %edx
	jmp	.LBB0_780
.LBB0_779:                              #   in Loop: Header=BB0_52 Depth=6
	movl	%r13d, %edx
	movq	%rcx, %r14
.LBB0_780:                              # %inst_750
                                        #   in Loop: Header=BB0_52 Depth=6
	movl	16(%rsp), %edi                  # 4-byte Reload
	incq	%r14
	movw	$122, %ax
	jmp	.LBB0_1587
.LBB0_781:                              #   in Loop: Header=BB0_52 Depth=6
	movl	32(%rsp), %eax                  # 4-byte Reload
                                        # kill: def $ax killed $ax killed $eax def $eax
	movl	%r13d, %edx
	movq	%rcx, %r14
	movl	16(%rsp), %edi                  # 4-byte Reload
	jmp	.LBB0_1587
.LBB0_782:                              #   in Loop: Header=BB0_52 Depth=6
	movl	%ebx, %esi
	movl	16(%rsp), %edi                  # 4-byte Reload
	jmp	.LBB0_1588
.LBB0_783:                              #   in Loop: Header=BB0_52 Depth=6
	movl	%ebx, %esi
	movl	32(%rsp), %eax                  # 4-byte Reload
                                        # kill: def $ax killed $ax killed $eax def $eax
	movl	%r13d, %edx
	movq	%rcx, %r14
	movl	16(%rsp), %edi                  # 4-byte Reload
	jmp	.LBB0_1590
.LBB0_784:                              #   in Loop: Header=BB0_52 Depth=6
	movl	%ebx, %esi
	movl	32(%rsp), %eax                  # 4-byte Reload
                                        # kill: def $ax killed $ax killed $eax def $eax
	movl	%r13d, %edx
	movq	%rcx, %r14
	movl	16(%rsp), %edi                  # 4-byte Reload
	jmp	.LBB0_1591
.LBB0_785:                              #   in Loop: Header=BB0_52 Depth=6
	movl	%ebx, %esi
	movl	32(%rsp), %eax                  # 4-byte Reload
                                        # kill: def $ax killed $ax killed $eax def $eax
	movl	%r13d, %edx
	movq	%rcx, %r14
	movl	16(%rsp), %edi                  # 4-byte Reload
	jmp	.LBB0_1592
.LBB0_786:                              #   in Loop: Header=BB0_52 Depth=6
	movl	%ebx, %esi
	movl	32(%rsp), %eax                  # 4-byte Reload
                                        # kill: def $ax killed $ax killed $eax def $eax
	movl	%r13d, %edx
	movq	%rcx, %r14
	movl	16(%rsp), %edi                  # 4-byte Reload
	jmp	.LBB0_1593
.LBB0_787:                              #   in Loop: Header=BB0_52 Depth=6
	movl	%ebx, %esi
	movl	32(%rsp), %eax                  # 4-byte Reload
                                        # kill: def $ax killed $ax killed $eax def $eax
	movq	%rcx, %r14
	jmp	.LBB0_1594
.LBB0_788:                              # %inst_758
                                        #   in Loop: Header=BB0_52 Depth=6
	addq	$2, %r14
	movl	%r13d, %eax
	addl	$87, %eax
	jmp	.LBB0_790
.LBB0_789:                              #   in Loop: Header=BB0_52 Depth=6
	movl	%r13d, %eax
	movq	%rcx, %r14
.LBB0_790:                              # %inst_759
                                        #   in Loop: Header=BB0_52 Depth=6
	incq	%r14
	movzwl	%ax, %eax
	movzwl	68(%rsp,%rax,2), %eax
	jmp	.LBB0_792
.LBB0_791:                              #   in Loop: Header=BB0_52 Depth=6
	movl	%r13d, %eax
	movq	%rcx, %r14
.LBB0_792:                              # %inst_760
                                        #   in Loop: Header=BB0_52 Depth=6
	incq	%r14
	movw	%ax, 176(%rsp)
	jmp	.LBB0_1132
.LBB0_794:                              # %inst_762
                                        #   in Loop: Header=BB0_52 Depth=6
	movq	%r14, %rcx
	addq	$2, %rcx
	movl	16(%rsp), %eax                  # 4-byte Reload
	movw	%ax, 240(%rsp)
.LBB0_795:                              # %inst_763
                                        #   in Loop: Header=BB0_52 Depth=6
	incq	%rcx
	movl	%r13d, %edx
	addl	$87, %edx
	jmp	.LBB0_797
.LBB0_796:                              #   in Loop: Header=BB0_52 Depth=6
	movl	%r13d, %edx
.LBB0_797:                              # %inst_764
                                        #   in Loop: Header=BB0_52 Depth=6
	incq	%rcx
	movzwl	8(%rsp), %eax                   # 2-byte Folded Reload
                                        # kill: def $ax killed $ax def $eax
	decl	%eax
	movzwl	%ax, %esi
	movw	%dx, 68(%rsp,%rsi,2)
	jmp	.LBB0_799
.LBB0_798:                              #   in Loop: Header=BB0_52 Depth=6
	movzwl	8(%rsp), %eax                   # 2-byte Folded Reload
                                        # kill: def $ax killed $ax def $eax
.LBB0_799:                              # %inst_765
                                        #   in Loop: Header=BB0_52 Depth=6
	incq	%rcx
	movw	$16, %dx
	movl	%edx, %r13d
	jmp	.LBB0_801
.LBB0_800:                              #   in Loop: Header=BB0_52 Depth=6
	movzwl	8(%rsp), %eax                   # 2-byte Folded Reload
                                        # kill: def $ax killed $ax def $eax
.LBB0_801:                              # %inst_766
                                        #   in Loop: Header=BB0_52 Depth=6
	movw	$767, %dx                       # imm = 0x2FF
	jmp	.LBB0_802
.LBB0_803:                              # %inst_767
                                        #   in Loop: Header=BB0_52 Depth=6
	addq	$2, %r14
	movzwl	274(%rsp), %eax
	movl	%eax, %r10d
	jmp	.LBB0_805
.LBB0_804:                              #   in Loop: Header=BB0_52 Depth=6
	movq	%rcx, %r14
.LBB0_805:                              # %inst_768
                                        #   in Loop: Header=BB0_52 Depth=6
	movl	%r10d, %eax
	incq	%r14
	cmpw	$-1, %r10w
	jne	.LBB0_300
	jmp	.LBB0_299
.LBB0_806:                              #   in Loop: Header=BB0_52 Depth=6
	movq	%rcx, %r14
	jmp	.LBB0_299
.LBB0_807:                              #   in Loop: Header=BB0_52 Depth=6
	movq	%rcx, %r14
	jmp	.LBB0_300
.LBB0_808:                              #   in Loop: Header=BB0_52 Depth=6
	movl	%r13d, %eax
	movzwl	8(%rsp), %edx                   # 2-byte Folded Reload
	movl	%edx, %r12d
	movq	%rcx, %r14
	jmp	.LBB0_301
.LBB0_809:                              #   in Loop: Header=BB0_52 Depth=6
	movl	%r13d, %ebp
	movzwl	8(%rsp), %eax                   # 2-byte Folded Reload
	movl	%eax, %r12d
	movq	%rcx, %r14
	jmp	.LBB0_302
.LBB0_810:                              #   in Loop: Header=BB0_52 Depth=6
	movl	%ebx, %eax
	movl	%r13d, %ebp
	movzwl	8(%rsp), %edx                   # 2-byte Folded Reload
	movl	%edx, %r12d
	movq	%rcx, %r14
	jmp	.LBB0_303
.LBB0_811:                              #   in Loop: Header=BB0_52 Depth=6
	movl	%ebx, %eax
	movl	%r13d, %ebp
	movzwl	8(%rsp), %edx                   # 2-byte Folded Reload
	movl	%edx, %r12d
	movq	%rcx, %r14
	jmp	.LBB0_304
.LBB0_812:                              #   in Loop: Header=BB0_52 Depth=6
	movl	%ebx, %eax
	movl	%r13d, %ebp
	movzwl	8(%rsp), %edx                   # 2-byte Folded Reload
	movl	%edx, %r12d
	movq	%rcx, %r14
	jmp	.LBB0_305
.LBB0_813:                              #   in Loop: Header=BB0_52 Depth=6
	movl	%ebx, %eax
	movl	%r13d, %ebp
	movzwl	8(%rsp), %edx                   # 2-byte Folded Reload
	movl	%edx, %r12d
	movq	%rcx, %r14
	jmp	.LBB0_306
.LBB0_814:                              #   in Loop: Header=BB0_52 Depth=6
	movl	%ebx, %eax
	movl	%r13d, %ebp
	movzwl	8(%rsp), %edx                   # 2-byte Folded Reload
	movl	%edx, %r12d
	movq	%rcx, %r14
.LBB0_815:                              # %inst_777
                                        #   in Loop: Header=BB0_52 Depth=6
	incq	%r14
	cmpw	$47, %ax
	jne	.LBB0_817
	jmp	.LBB0_820
.LBB0_816:                              #   in Loop: Header=BB0_52 Depth=6
	movl	%r13d, %ebp
	movzwl	8(%rsp), %eax                   # 2-byte Folded Reload
	movl	%eax, %r12d
	movq	%rcx, %r14
.LBB0_817:                              # %inst_778
                                        #   in Loop: Header=BB0_52 Depth=6
	incq	%r14
	movl	%r10d, %r9d
	jmp	.LBB0_822
.LBB0_818:                              #   in Loop: Header=BB0_52 Depth=6
	movl	%r13d, %ebp
	movzwl	8(%rsp), %eax                   # 2-byte Folded Reload
	movl	%eax, %r12d
	movq	%rcx, %r14
	jmp	.LBB0_307
.LBB0_819:                              #   in Loop: Header=BB0_52 Depth=6
	movl	%r13d, %ebp
	movzwl	8(%rsp), %eax                   # 2-byte Folded Reload
	movl	%eax, %r12d
	movq	%rcx, %r14
.LBB0_820:                              # %inst_782
                                        #   in Loop: Header=BB0_52 Depth=6
	incq	%r14
	movzwl	178(%rsp), %r9d
.LBB0_821:                              # %inst_783
                                        #   in Loop: Header=BB0_52 Depth=6
	incq	%r14
	incl	%ebp
.LBB0_822:                              # %inst_786
                                        #   in Loop: Header=BB0_52 Depth=6
	incq	%r14
	jmp	.LBB0_1597
.LBB0_823:                              #   in Loop: Header=BB0_52 Depth=6
	movl	%r13d, %ebp
	movzwl	8(%rsp), %eax                   # 2-byte Folded Reload
	movl	%eax, %r12d
	movq	%rcx, %r14
	movl	%r10d, %r9d
	jmp	.LBB0_822
.LBB0_824:                              #   in Loop: Header=BB0_52 Depth=6
	movl	32(%rsp), %eax                  # 4-byte Reload
	movl	%eax, %r9d
	movl	%r13d, %ebp
	movzwl	8(%rsp), %eax                   # 2-byte Folded Reload
	movl	%eax, %r12d
	movq	%rcx, %r14
	jmp	.LBB0_1597
.LBB0_825:                              #   in Loop: Header=BB0_52 Depth=6
	movl	32(%rsp), %eax                  # 4-byte Reload
	movl	%eax, %r9d
	movl	%r13d, %ebp
	movzwl	8(%rsp), %eax                   # 2-byte Folded Reload
	movl	%eax, %r12d
	movq	%rcx, %r14
	jmp	.LBB0_1598
.LBB0_826:                              #   in Loop: Header=BB0_52 Depth=6
	movl	32(%rsp), %eax                  # 4-byte Reload
	movl	%eax, %r9d
	movl	%r13d, %ebp
	movzwl	8(%rsp), %eax                   # 2-byte Folded Reload
	movl	%eax, %r12d
	movq	%rcx, %r14
	jmp	.LBB0_1599
.LBB0_827:                              #   in Loop: Header=BB0_52 Depth=6
	movl	%r10d, %ebx
	movl	32(%rsp), %eax                  # 4-byte Reload
	movl	%r13d, %edx
	movl	%eax, %r13d
	movl	%edx, %ebp
	movzwl	8(%rsp), %eax                   # 2-byte Folded Reload
	movl	%eax, %r12d
	movq	%rcx, %r14
	jmp	.LBB0_1600
.LBB0_828:                              #   in Loop: Header=BB0_52 Depth=6
	movl	%ebx, %ebp
	movl	32(%rsp), %eax                  # 4-byte Reload
	movl	%eax, %esi
                                        # kill: def $r13w killed $r13w killed $r13d def $r13d
	movl	%r13d, 44(%rsp)                 # 4-byte Spill
	movzwl	8(%rsp), %eax                   # 2-byte Folded Reload
	movl	%eax, %r12d
	movq	%rcx, %r14
	jmp	.LBB0_1601
.LBB0_829:                              #   in Loop: Header=BB0_52 Depth=6
	movl	%ebx, %ebp
	movl	32(%rsp), %eax                  # 4-byte Reload
	movl	%eax, %esi
                                        # kill: def $r13w killed $r13w killed $r13d def $r13d
	movl	%r13d, 44(%rsp)                 # 4-byte Spill
	movzwl	8(%rsp), %eax                   # 2-byte Folded Reload
	movl	%eax, %r12d
	movq	%rcx, %r14
	jmp	.LBB0_1602
.LBB0_830:                              #   in Loop: Header=BB0_52 Depth=6
	movl	%r10d, %r15d
	movl	%ebx, %ebp
	movl	32(%rsp), %eax                  # 4-byte Reload
	movl	%eax, %ebx
                                        # kill: def $r13w killed $r13w killed $r13d def $r13d
	movl	%r13d, 44(%rsp)                 # 4-byte Spill
	movzwl	8(%rsp), %eax                   # 2-byte Folded Reload
	movl	%eax, %r12d
	movq	%rcx, %r14
	jmp	.LBB0_1603
.LBB0_831:                              #   in Loop: Header=BB0_52 Depth=6
	movl	%ebx, %ebp
	movl	32(%rsp), %eax                  # 4-byte Reload
	movl	%eax, %r9d
                                        # kill: def $r13w killed $r13w killed $r13d def $r13d
	movl	%r13d, 44(%rsp)                 # 4-byte Spill
	movzwl	8(%rsp), %eax                   # 2-byte Folded Reload
	movl	%eax, %r12d
	movq	%rcx, %r14
	movl	16(%rsp), %eax                  # 4-byte Reload
	jmp	.LBB0_1604
.LBB0_832:                              #   in Loop: Header=BB0_52 Depth=6
	movl	32(%rsp), %eax                  # 4-byte Reload
	movl	%eax, %r9d
	movl	%r13d, %ebp
	movzwl	8(%rsp), %eax                   # 2-byte Folded Reload
	movl	%eax, %r12d
	movq	%rcx, %r14
	movl	16(%rsp), %eax                  # 4-byte Reload
	jmp	.LBB0_1605
.LBB0_833:                              #   in Loop: Header=BB0_52 Depth=6
	movl	32(%rsp), %eax                  # 4-byte Reload
	movl	%eax, %r9d
	movl	%r13d, %ebp
	movzwl	8(%rsp), %eax                   # 2-byte Folded Reload
	movl	%eax, %r12d
	movq	%rcx, %r14
	jmp	.LBB0_1606
.LBB0_834:                              #   in Loop: Header=BB0_52 Depth=6
	movl	32(%rsp), %eax                  # 4-byte Reload
	movl	%eax, %r9d
	movl	%r13d, %ebp
	movl	%r10d, %r15d
	movzwl	8(%rsp), %eax                   # 2-byte Folded Reload
	movl	%eax, %r12d
	movq	%rcx, %r14
	jmp	.LBB0_1607
.LBB0_835:                              #   in Loop: Header=BB0_52 Depth=6
	movl	%ebx, %eax
	movl	32(%rsp), %edx                  # 4-byte Reload
	movl	%edx, %r9d
	movl	%r13d, %ebp
	movl	%r10d, %r15d
	movzwl	8(%rsp), %edx                   # 2-byte Folded Reload
	movl	%edx, %r12d
	movq	%rcx, %r14
	jmp	.LBB0_1608
.LBB0_836:                              #   in Loop: Header=BB0_52 Depth=6
	movl	%ebx, %eax
	movl	32(%rsp), %edx                  # 4-byte Reload
	movl	%edx, %r9d
	movl	%r13d, %ebp
	movl	%r10d, %r15d
	movzwl	8(%rsp), %edx                   # 2-byte Folded Reload
	movl	%edx, %r12d
	movq	%rcx, %r14
	jmp	.LBB0_1609
.LBB0_837:                              #   in Loop: Header=BB0_52 Depth=6
	movl	%ebx, %eax
	movl	32(%rsp), %edx                  # 4-byte Reload
	movl	%edx, %r9d
	movl	%r13d, %ebp
	movzwl	8(%rsp), %edx                   # 2-byte Folded Reload
	movl	%edx, %r12d
	movq	%rcx, %r14
	jmp	.LBB0_1611
.LBB0_838:                              #   in Loop: Header=BB0_52 Depth=6
	movl	32(%rsp), %eax                  # 4-byte Reload
	movl	%eax, %r9d
	movl	%r13d, %ebp
	movzwl	8(%rsp), %eax                   # 2-byte Folded Reload
	movl	%eax, %r12d
	movq	%rcx, %r14
	movl	16(%rsp), %ecx                  # 4-byte Reload
	jmp	.LBB0_1612
.LBB0_839:                              #   in Loop: Header=BB0_52 Depth=6
	movl	32(%rsp), %eax                  # 4-byte Reload
	movl	%eax, %r9d
	movl	%r13d, %ebp
	movzwl	8(%rsp), %eax                   # 2-byte Folded Reload
	movl	%eax, %r12d
	movq	%rcx, %r14
	jmp	.LBB0_1613
.LBB0_840:                              #   in Loop: Header=BB0_52 Depth=6
